Archive member included because of file (symbol)

c:\program files\renesas\hew\tools\kpit cummins\gnuh8-elf\v11.02\h8300-elf\lib\gcc\h8300-elf\4.5-GNUH8_v11.02\h8300h\libgcc.a(_divsi3.o)
                              C:\WorkSpace\artsat\BBM\20120510\20120510\Debug\sci_util.o (__udivsi3)
c:\program files\renesas\hew\tools\kpit cummins\gnuh8-elf\v11.02\h8300-elf\lib\gcc\h8300-elf\4.5-GNUH8_v11.02\h8300h\libgcc.a(_mulsi3.o)
                              C:\WorkSpace\artsat\BBM\20120510\20120510\Debug\sci1.o (__mulsi3)
c:\program files\renesas\hew\tools\kpit cummins\gnuh8-elf\v11.02\h8300-elf\lib\gcc\h8300-elf\4.5-GNUH8_v11.02\h8300h\libgcc.a(_fixunssfsi.o)
                              C:\WorkSpace\artsat\BBM\20120510\20120510\Debug\sci_util.o (__fixunssfsi)
c:\program files\renesas\hew\tools\kpit cummins\gnuh8-elf\v11.02\h8300-elf\lib\gcc\h8300-elf\4.5-GNUH8_v11.02\h8300h\libgcc.a(_addsub_sf.o)
                              C:\WorkSpace\artsat\BBM\20120510\20120510\Debug\sci_util.o (__addsf3)
c:\program files\renesas\hew\tools\kpit cummins\gnuh8-elf\v11.02\h8300-elf\lib\gcc\h8300-elf\4.5-GNUH8_v11.02\h8300h\libgcc.a(_mul_sf.o)
                              C:\WorkSpace\artsat\BBM\20120510\20120510\Debug\sci_util.o (__mulsf3)
c:\program files\renesas\hew\tools\kpit cummins\gnuh8-elf\v11.02\h8300-elf\lib\gcc\h8300-elf\4.5-GNUH8_v11.02\h8300h\libgcc.a(_ge_sf.o)
                              c:\program files\renesas\hew\tools\kpit cummins\gnuh8-elf\v11.02\h8300-elf\lib\gcc\h8300-elf\4.5-GNUH8_v11.02\h8300h\libgcc.a(_fixunssfsi.o) (__gesf2)
c:\program files\renesas\hew\tools\kpit cummins\gnuh8-elf\v11.02\h8300-elf\lib\gcc\h8300-elf\4.5-GNUH8_v11.02\h8300h\libgcc.a(_lt_sf.o)
                              C:\WorkSpace\artsat\BBM\20120510\20120510\Debug\sci_util.o (__ltsf2)
c:\program files\renesas\hew\tools\kpit cummins\gnuh8-elf\v11.02\h8300-elf\lib\gcc\h8300-elf\4.5-GNUH8_v11.02\h8300h\libgcc.a(_sf_to_si.o)
                              c:\program files\renesas\hew\tools\kpit cummins\gnuh8-elf\v11.02\h8300-elf\lib\gcc\h8300-elf\4.5-GNUH8_v11.02\h8300h\libgcc.a(_fixunssfsi.o) (__fixsfsi)
c:\program files\renesas\hew\tools\kpit cummins\gnuh8-elf\v11.02\h8300-elf\lib\gcc\h8300-elf\4.5-GNUH8_v11.02\h8300h\libgcc.a(_thenan_sf.o)
                              c:\program files\renesas\hew\tools\kpit cummins\gnuh8-elf\v11.02\h8300-elf\lib\gcc\h8300-elf\4.5-GNUH8_v11.02\h8300h\libgcc.a(_addsub_sf.o) (__thenan_sf)
c:\program files\renesas\hew\tools\kpit cummins\gnuh8-elf\v11.02\h8300-elf\lib\gcc\h8300-elf\4.5-GNUH8_v11.02\h8300h\libgcc.a(_usi_to_sf.o)
                              C:\WorkSpace\artsat\BBM\20120510\20120510\Debug\sci_util.o (__floatunsisf)
c:\program files\renesas\hew\tools\kpit cummins\gnuh8-elf\v11.02\h8300-elf\lib\gcc\h8300-elf\4.5-GNUH8_v11.02\h8300h\libgcc.a(_clzsi2.o)
                              c:\program files\renesas\hew\tools\kpit cummins\gnuh8-elf\v11.02\h8300-elf\lib\gcc\h8300-elf\4.5-GNUH8_v11.02\h8300h\libgcc.a(_usi_to_sf.o) (__clzsi2)
c:\program files\renesas\hew\tools\kpit cummins\gnuh8-elf\v11.02\h8300-elf\lib\gcc\h8300-elf\4.5-GNUH8_v11.02\h8300h\libgcc.a(_pack_sf.o)
                              c:\program files\renesas\hew\tools\kpit cummins\gnuh8-elf\v11.02\h8300-elf\lib\gcc\h8300-elf\4.5-GNUH8_v11.02\h8300h\libgcc.a(_addsub_sf.o) (__pack_f)
c:\program files\renesas\hew\tools\kpit cummins\gnuh8-elf\v11.02\h8300-elf\lib\gcc\h8300-elf\4.5-GNUH8_v11.02\h8300h\libgcc.a(_unpack_sf.o)
                              c:\program files\renesas\hew\tools\kpit cummins\gnuh8-elf\v11.02\h8300-elf\lib\gcc\h8300-elf\4.5-GNUH8_v11.02\h8300h\libgcc.a(_addsub_sf.o) (__unpack_f)
c:\program files\renesas\hew\tools\kpit cummins\gnuh8-elf\v11.02\h8300-elf\lib\gcc\h8300-elf\4.5-GNUH8_v11.02\h8300h\libgcc.a(_fpcmp_parts_sf.o)
                              c:\program files\renesas\hew\tools\kpit cummins\gnuh8-elf\v11.02\h8300-elf\lib\gcc\h8300-elf\4.5-GNUH8_v11.02\h8300h\libgcc.a(_ge_sf.o) (__fpcmp_parts_f)
c:\program files\renesas\hew\tools\kpit cummins\gnuh8-elf\v11.02\h8300-elf\lib\gcc\h8300-elf\4.5-GNUH8_v11.02\h8300h\libgcc.a(_clz.o)
                              c:\program files\renesas\hew\tools\kpit cummins\gnuh8-elf\v11.02\h8300-elf\lib\gcc\h8300-elf\4.5-GNUH8_v11.02\h8300h\libgcc.a(_clzsi2.o) (__clz_tab)
C:\WorkSpace\artsat\BBM\20120510\20120510\Debug\lib20120510.a(exit.o)
                              C:\WorkSpace\artsat\BBM\20120510\20120510\Debug\start.o (exit)
C:\WorkSpace\artsat\BBM\20120510\20120510\Debug\lib20120510.a(_exit.o)
                              C:\WorkSpace\artsat\BBM\20120510\20120510\Debug\lib20120510.a(exit.o) (_exit)

Memory Configuration

Name             Origin             Length             Attributes
*default*        0x00000000         0xffffffff

Linker script and memory map


.vects          0x00000000      0x100
 *(.vects)
 .vects         0x00000000      0x100 C:\WorkSpace\artsat\BBM\20120510\20120510\Debug\vects.o
                0x00000000                HardwareVectors

.text           0x00000400     0x247c
 *(.text)
 .text          0x00000400        0x0 C:\WorkSpace\artsat\BBM\20120510\20120510\Debug\vects.o
 .text          0x00000400       0x50 C:\WorkSpace\artsat\BBM\20120510\20120510\Debug\start.o
                0x00000400                start
 .text          0x00000450      0x724 C:\WorkSpace\artsat\BBM\20120510\20120510\Debug\sci_util.o
                0x00000450                debug_sci_init
                0x00000480                debug_putc
                0x0000049e                debug_puts
                0x000004c0                debug_getc
                0x000004d4                debug_puthex
                0x0000052e                debug_putdec
                0x00000550                debug_putfloat
                0x00000690                HexToAscii
                0x000006bc                getDecFromChars
                0x0000079e                getFloatFromChars
                0x000009f6                getHexFromChars
                0x00000b2c                AsciiToHex
 .text          0x00000b74      0x6c8 C:\WorkSpace\artsat\BBM\20120510\20120510\Debug\sci1.o
                0x00000b74                sci1_init
                0x00000ca8                sci1_putc
                0x00000d68                sci1_puthex
                0x00000daa                sci1_putdec
                0x00000f0a                sci1_putdoublehex
                0x00000f36                sci1_putfourhex
                0x00000f68                sci1_putcrlf
                0x00000f80                sci1_puts
                0x00000fec                sci1_getc
                0x00001086                INT_ERI1
                0x000010b8                INT_RXI1
                0x0000114c                INT_TXI1
                0x0000120a                INT_TEI1
 .text          0x0000123c      0x6c8 C:\WorkSpace\artsat\BBM\20120510\20120510\Debug\sci0.o
                0x0000123c                sci0_init
                0x00001370                sci0_putc
                0x00001430                sci0_puthex
                0x00001472                sci0_putdec
                0x000015d2                sci0_putdoublehex
                0x000015fe                sci0_putfourhex
                0x00001630                sci0_putcrlf
                0x00001648                sci0_puts
                0x000016b4                sci0_getc
                0x0000174e                INT_ERI0
                0x00001780                INT_RXI0
                0x00001814                INT_TXI0
                0x000018d2                INT_TEI0
 .text          0x00001904      0x1d4 C:\WorkSpace\artsat\BBM\20120510\20120510\Debug\inthandler.o
                0x00001904                INT_NMI
                0x00001910                INT_TRAP1
                0x0000191c                INT_TRAP2
                0x00001928                INT_TRAP3
                0x00001934                INT_TRAP4
                0x00001940                INT_IRQ0
                0x0000194c                INT_IRQ1
                0x00001958                INT_IRQ2
                0x00001964                INT_IRQ3
                0x00001970                INT_IRQ4
                0x0000197c                INT_IRQ5
                0x00001988                INT_WOVI
                0x00001994                INT_CMI
                0x000019a0                INT_ADI
                0x000019ac                INT_IMIA0
                0x000019b8                INT_IMIB0
                0x000019c4                INT_OVI0
                0x000019d0                INT_IMIA1
                0x000019dc                INT_IMIB1
                0x000019e8                INT_OVI1
                0x000019f4                INT_IMIA2
                0x00001a00                INT_IMIB2
                0x00001a0c                INT_OVI2
                0x00001a18                INT_CMIA0
                0x00001a24                INT_CMIB0
                0x00001a30                INT_CMIA1B1
                0x00001a3c                INT_TOVI0_1
                0x00001a48                INT_CMIA2
                0x00001a54                INT_CMIB2
                0x00001a60                INT_CMIA3B3
                0x00001a6c                INT_TOVI2_3
                0x00001a78                INT_DEND0A
                0x00001a84                INT_DEND0B
                0x00001a90                INT_DEND1A
                0x00001a9c                INT_DEND1B
                0x00001aa8                INT_ERI2
                0x00001ab4                INT_RXI2
                0x00001ac0                INT_TXI2
                0x00001acc                INT_TEI2
 .text          0x00001ad8       0xf0 C:\WorkSpace\artsat\BBM\20120510\20120510\Debug\init.o
                0x00001ad8                init_infunc
                0x00001b34                init_bus
                0x00001bac                init_peripherals
 .text          0x00001bc8        0xc C:\WorkSpace\artsat\BBM\20120510\20120510\Debug\hwinit.o
                0x00001bc8                hw_initialise
 .text          0x00001bd4       0xde C:\WorkSpace\artsat\BBM\20120510\20120510\Debug\20120510.o
                0x00001bd4                main
 *fill*         0x00001cb2        0x2 00
 .text          0x00001cb4       0x8c c:\program files\renesas\hew\tools\kpit cummins\gnuh8-elf\v11.02\h8300-elf\lib\gcc\h8300-elf\4.5-GNUH8_v11.02\h8300h\libgcc.a(_divsi3.o)
                0x00001cd6                __modsi3
                0x00001ce2                __umodsi3
                0x00001ce8                __divsi3
                0x00001cfe                __udivsi3
 .text          0x00001d40       0x18 c:\program files\renesas\hew\tools\kpit cummins\gnuh8-elf\v11.02\h8300-elf\lib\gcc\h8300-elf\4.5-GNUH8_v11.02\h8300h\libgcc.a(_mulsi3.o)
                0x00001d40                __mulsi3
 .text          0x00001d58       0x40 c:\program files\renesas\hew\tools\kpit cummins\gnuh8-elf\v11.02\h8300-elf\lib\gcc\h8300-elf\4.5-GNUH8_v11.02\h8300h\libgcc.a(_fixunssfsi.o)
                0x00001d58                __fixunssfsi
 .text          0x00001d98      0x388 c:\program files\renesas\hew\tools\kpit cummins\gnuh8-elf\v11.02\h8300-elf\lib\gcc\h8300-elf\4.5-GNUH8_v11.02\h8300h\libgcc.a(_addsub_sf.o)
                0x0000202e                __addsf3
                0x000020a2                __subsf3
 .text          0x00002120      0x200 c:\program files\renesas\hew\tools\kpit cummins\gnuh8-elf\v11.02\h8300-elf\lib\gcc\h8300-elf\4.5-GNUH8_v11.02\h8300h\libgcc.a(_mul_sf.o)
                0x00002120                __mulsf3
 .text          0x00002320       0x80 c:\program files\renesas\hew\tools\kpit cummins\gnuh8-elf\v11.02\h8300-elf\lib\gcc\h8300-elf\4.5-GNUH8_v11.02\h8300h\libgcc.a(_ge_sf.o)
                0x00002320                __gesf2
 .text          0x000023a0       0x80 c:\program files\renesas\hew\tools\kpit cummins\gnuh8-elf\v11.02\h8300-elf\lib\gcc\h8300-elf\4.5-GNUH8_v11.02\h8300h\libgcc.a(_lt_sf.o)
                0x000023a0                __ltsf2
 .text          0x00002420       0x82 c:\program files\renesas\hew\tools\kpit cummins\gnuh8-elf\v11.02\h8300-elf\lib\gcc\h8300-elf\4.5-GNUH8_v11.02\h8300h\libgcc.a(_sf_to_si.o)
                0x00002420                __fixsfsi
 .text          0x000024a2        0x0 c:\program files\renesas\hew\tools\kpit cummins\gnuh8-elf\v11.02\h8300-elf\lib\gcc\h8300-elf\4.5-GNUH8_v11.02\h8300h\libgcc.a(_thenan_sf.o)
 .text          0x000024a2       0xbe c:\program files\renesas\hew\tools\kpit cummins\gnuh8-elf\v11.02\h8300-elf\lib\gcc\h8300-elf\4.5-GNUH8_v11.02\h8300h\libgcc.a(_usi_to_sf.o)
                0x000024a2                __floatunsisf
 .text          0x00002560       0x5a c:\program files\renesas\hew\tools\kpit cummins\gnuh8-elf\v11.02\h8300-elf\lib\gcc\h8300-elf\4.5-GNUH8_v11.02\h8300h\libgcc.a(_clzsi2.o)
                0x00002560                __clzsi2
 .text          0x000025ba      0x148 c:\program files\renesas\hew\tools\kpit cummins\gnuh8-elf\v11.02\h8300-elf\lib\gcc\h8300-elf\4.5-GNUH8_v11.02\h8300h\libgcc.a(_pack_sf.o)
                0x000025ba                __pack_f
 .text          0x00002702       0xb8 c:\program files\renesas\hew\tools\kpit cummins\gnuh8-elf\v11.02\h8300-elf\lib\gcc\h8300-elf\4.5-GNUH8_v11.02\h8300h\libgcc.a(_unpack_sf.o)
                0x00002702                __unpack_f
 .text          0x000027ba       0xa0 c:\program files\renesas\hew\tools\kpit cummins\gnuh8-elf\v11.02\h8300-elf\lib\gcc\h8300-elf\4.5-GNUH8_v11.02\h8300h\libgcc.a(_fpcmp_parts_sf.o)
                0x000027ba                __fpcmp_parts_f
 .text          0x0000285a        0x0 c:\program files\renesas\hew\tools\kpit cummins\gnuh8-elf\v11.02\h8300-elf\lib\gcc\h8300-elf\4.5-GNUH8_v11.02\h8300h\libgcc.a(_clz.o)
 .text          0x0000285a        0x0 C:\WorkSpace\artsat\BBM\20120510\20120510\Debug\lib20120510.a(exit.o)
 *fill*         0x0000285a        0x2 00
 .text          0x0000285c       0x10 C:\WorkSpace\artsat\BBM\20120510\20120510\Debug\lib20120510.a(_exit.o)
                0x0000285c                _exit
 *(.text.*)
 .text.exit     0x0000286c       0x10 C:\WorkSpace\artsat\BBM\20120510\20120510\Debug\lib20120510.a(exit.o)
                0x0000286c                exit
                0x0000287c                etext = .

.init
 *(.init)

.fini
 *(.fini)

.got
 *(.got)
 *(.got.plt)

.rodata         0x0000287c      0x204
 *(.rodata)
 .rodata        0x0000287c       0x77 C:\WorkSpace\artsat\BBM\20120510\20120510\Debug\sci_util.o
 .rodata        0x000028f3       0x82 C:\WorkSpace\artsat\BBM\20120510\20120510\Debug\20120510.o
 *fill*         0x00002975        0x3 00
 .rodata        0x00002978        0x8 c:\program files\renesas\hew\tools\kpit cummins\gnuh8-elf\v11.02\h8300-elf\lib\gcc\h8300-elf\4.5-GNUH8_v11.02\h8300h\libgcc.a(_thenan_sf.o)
                0x00002978                __thenan_sf
 .rodata        0x00002980      0x100 c:\program files\renesas\hew\tools\kpit cummins\gnuh8-elf\v11.02\h8300-elf\lib\gcc\h8300-elf\4.5-GNUH8_v11.02\h8300h\libgcc.a(_clz.o)
                0x00002980                __clz_tab
 *(.rodata.*)
                0x00002a80                _erodata = .

.eh_frame_hdr
 *(.eh_frame_hdr)

.eh_frame
 *(.eh_frame)

.jcr
 *(.jcr)

.tors           0x00002a80        0x0
                0x00002a80                __CTOR_LIST__ = .
                0x00002a80                ___ctors = .
 *(.ctors)
                0x00002a80                ___ctors_end = .
                0x00002a80                __CTOR_END__ = .
                0x00002a80                __DTOR_LIST__ = .
                0x00002a80                ___dtors = .
 *(.dtors)
                0x00002a80                ___dtors_end = .
                0x00002a80                __DTOR_END__ = .
                0x00002a80                _mdata = .

.data           0x00ffbf20        0x0 load address 0x00002a80
                0x00ffbf20                _data = .
 *(.data)
 .data          0x00ffbf20        0x0 C:\WorkSpace\artsat\BBM\20120510\20120510\Debug\vects.o
 .data          0x00ffbf20        0x0 C:\WorkSpace\artsat\BBM\20120510\20120510\Debug\start.o
 .data          0x00ffbf20        0x0 C:\WorkSpace\artsat\BBM\20120510\20120510\Debug\sci_util.o
 .data          0x00ffbf20        0x0 C:\WorkSpace\artsat\BBM\20120510\20120510\Debug\sci1.o
 .data          0x00ffbf20        0x0 C:\WorkSpace\artsat\BBM\20120510\20120510\Debug\sci0.o
 .data          0x00ffbf20        0x0 C:\WorkSpace\artsat\BBM\20120510\20120510\Debug\inthandler.o
 .data          0x00ffbf20        0x0 C:\WorkSpace\artsat\BBM\20120510\20120510\Debug\init.o
 .data          0x00ffbf20        0x0 C:\WorkSpace\artsat\BBM\20120510\20120510\Debug\hwinit.o
 .data          0x00ffbf20        0x0 C:\WorkSpace\artsat\BBM\20120510\20120510\Debug\20120510.o
 .data          0x00ffbf20        0x0 c:\program files\renesas\hew\tools\kpit cummins\gnuh8-elf\v11.02\h8300-elf\lib\gcc\h8300-elf\4.5-GNUH8_v11.02\h8300h\libgcc.a(_divsi3.o)
 .data          0x00ffbf20        0x0 c:\program files\renesas\hew\tools\kpit cummins\gnuh8-elf\v11.02\h8300-elf\lib\gcc\h8300-elf\4.5-GNUH8_v11.02\h8300h\libgcc.a(_mulsi3.o)
 .data          0x00ffbf20        0x0 c:\program files\renesas\hew\tools\kpit cummins\gnuh8-elf\v11.02\h8300-elf\lib\gcc\h8300-elf\4.5-GNUH8_v11.02\h8300h\libgcc.a(_fixunssfsi.o)
 .data          0x00ffbf20        0x0 c:\program files\renesas\hew\tools\kpit cummins\gnuh8-elf\v11.02\h8300-elf\lib\gcc\h8300-elf\4.5-GNUH8_v11.02\h8300h\libgcc.a(_addsub_sf.o)
 .data          0x00ffbf20        0x0 c:\program files\renesas\hew\tools\kpit cummins\gnuh8-elf\v11.02\h8300-elf\lib\gcc\h8300-elf\4.5-GNUH8_v11.02\h8300h\libgcc.a(_mul_sf.o)
 .data          0x00ffbf20        0x0 c:\program files\renesas\hew\tools\kpit cummins\gnuh8-elf\v11.02\h8300-elf\lib\gcc\h8300-elf\4.5-GNUH8_v11.02\h8300h\libgcc.a(_ge_sf.o)
 .data          0x00ffbf20        0x0 c:\program files\renesas\hew\tools\kpit cummins\gnuh8-elf\v11.02\h8300-elf\lib\gcc\h8300-elf\4.5-GNUH8_v11.02\h8300h\libgcc.a(_lt_sf.o)
 .data          0x00ffbf20        0x0 c:\program files\renesas\hew\tools\kpit cummins\gnuh8-elf\v11.02\h8300-elf\lib\gcc\h8300-elf\4.5-GNUH8_v11.02\h8300h\libgcc.a(_sf_to_si.o)
 .data          0x00ffbf20        0x0 c:\program files\renesas\hew\tools\kpit cummins\gnuh8-elf\v11.02\h8300-elf\lib\gcc\h8300-elf\4.5-GNUH8_v11.02\h8300h\libgcc.a(_thenan_sf.o)
 .data          0x00ffbf20        0x0 c:\program files\renesas\hew\tools\kpit cummins\gnuh8-elf\v11.02\h8300-elf\lib\gcc\h8300-elf\4.5-GNUH8_v11.02\h8300h\libgcc.a(_usi_to_sf.o)
 .data          0x00ffbf20        0x0 c:\program files\renesas\hew\tools\kpit cummins\gnuh8-elf\v11.02\h8300-elf\lib\gcc\h8300-elf\4.5-GNUH8_v11.02\h8300h\libgcc.a(_clzsi2.o)
 .data          0x00ffbf20        0x0 c:\program files\renesas\hew\tools\kpit cummins\gnuh8-elf\v11.02\h8300-elf\lib\gcc\h8300-elf\4.5-GNUH8_v11.02\h8300h\libgcc.a(_pack_sf.o)
 .data          0x00ffbf20        0x0 c:\program files\renesas\hew\tools\kpit cummins\gnuh8-elf\v11.02\h8300-elf\lib\gcc\h8300-elf\4.5-GNUH8_v11.02\h8300h\libgcc.a(_unpack_sf.o)
 .data          0x00ffbf20        0x0 c:\program files\renesas\hew\tools\kpit cummins\gnuh8-elf\v11.02\h8300-elf\lib\gcc\h8300-elf\4.5-GNUH8_v11.02\h8300h\libgcc.a(_fpcmp_parts_sf.o)
 .data          0x00ffbf20        0x0 c:\program files\renesas\hew\tools\kpit cummins\gnuh8-elf\v11.02\h8300-elf\lib\gcc\h8300-elf\4.5-GNUH8_v11.02\h8300h\libgcc.a(_clz.o)
 .data          0x00ffbf20        0x0 C:\WorkSpace\artsat\BBM\20120510\20120510\Debug\lib20120510.a(exit.o)
 .data          0x00ffbf20        0x0 C:\WorkSpace\artsat\BBM\20120510\20120510\Debug\lib20120510.a(_exit.o)
 *(.data.*)
                0x00ffbf20                _edata = .

.gcc_exc
 *(.gcc_exc)

.bss            0x00ffbf20      0x418 load address 0x00002a80
                0x00ffbf20                _bss = .
 *(.bss)
 .bss           0x00ffbf20        0x0 C:\WorkSpace\artsat\BBM\20120510\20120510\Debug\vects.o
 .bss           0x00ffbf20        0x0 C:\WorkSpace\artsat\BBM\20120510\20120510\Debug\start.o
 .bss           0x00ffbf20        0x0 C:\WorkSpace\artsat\BBM\20120510\20120510\Debug\sci_util.o
 .bss           0x00ffbf20      0x20c C:\WorkSpace\artsat\BBM\20120510\20120510\Debug\sci1.o
 .bss           0x00ffc12c      0x20c C:\WorkSpace\artsat\BBM\20120510\20120510\Debug\sci0.o
 .bss           0x00ffc338        0x0 C:\WorkSpace\artsat\BBM\20120510\20120510\Debug\inthandler.o
 .bss           0x00ffc338        0x0 C:\WorkSpace\artsat\BBM\20120510\20120510\Debug\init.o
 .bss           0x00ffc338        0x0 C:\WorkSpace\artsat\BBM\20120510\20120510\Debug\hwinit.o
 .bss           0x00ffc338        0x0 C:\WorkSpace\artsat\BBM\20120510\20120510\Debug\20120510.o
 .bss           0x00ffc338        0x0 c:\program files\renesas\hew\tools\kpit cummins\gnuh8-elf\v11.02\h8300-elf\lib\gcc\h8300-elf\4.5-GNUH8_v11.02\h8300h\libgcc.a(_divsi3.o)
 .bss           0x00ffc338        0x0 c:\program files\renesas\hew\tools\kpit cummins\gnuh8-elf\v11.02\h8300-elf\lib\gcc\h8300-elf\4.5-GNUH8_v11.02\h8300h\libgcc.a(_mulsi3.o)
 .bss           0x00ffc338        0x0 c:\program files\renesas\hew\tools\kpit cummins\gnuh8-elf\v11.02\h8300-elf\lib\gcc\h8300-elf\4.5-GNUH8_v11.02\h8300h\libgcc.a(_fixunssfsi.o)
 .bss           0x00ffc338        0x0 c:\program files\renesas\hew\tools\kpit cummins\gnuh8-elf\v11.02\h8300-elf\lib\gcc\h8300-elf\4.5-GNUH8_v11.02\h8300h\libgcc.a(_addsub_sf.o)
 .bss           0x00ffc338        0x0 c:\program files\renesas\hew\tools\kpit cummins\gnuh8-elf\v11.02\h8300-elf\lib\gcc\h8300-elf\4.5-GNUH8_v11.02\h8300h\libgcc.a(_mul_sf.o)
 .bss           0x00ffc338        0x0 c:\program files\renesas\hew\tools\kpit cummins\gnuh8-elf\v11.02\h8300-elf\lib\gcc\h8300-elf\4.5-GNUH8_v11.02\h8300h\libgcc.a(_ge_sf.o)
 .bss           0x00ffc338        0x0 c:\program files\renesas\hew\tools\kpit cummins\gnuh8-elf\v11.02\h8300-elf\lib\gcc\h8300-elf\4.5-GNUH8_v11.02\h8300h\libgcc.a(_lt_sf.o)
 .bss           0x00ffc338        0x0 c:\program files\renesas\hew\tools\kpit cummins\gnuh8-elf\v11.02\h8300-elf\lib\gcc\h8300-elf\4.5-GNUH8_v11.02\h8300h\libgcc.a(_sf_to_si.o)
 .bss           0x00ffc338        0x0 c:\program files\renesas\hew\tools\kpit cummins\gnuh8-elf\v11.02\h8300-elf\lib\gcc\h8300-elf\4.5-GNUH8_v11.02\h8300h\libgcc.a(_thenan_sf.o)
 .bss           0x00ffc338        0x0 c:\program files\renesas\hew\tools\kpit cummins\gnuh8-elf\v11.02\h8300-elf\lib\gcc\h8300-elf\4.5-GNUH8_v11.02\h8300h\libgcc.a(_usi_to_sf.o)
 .bss           0x00ffc338        0x0 c:\program files\renesas\hew\tools\kpit cummins\gnuh8-elf\v11.02\h8300-elf\lib\gcc\h8300-elf\4.5-GNUH8_v11.02\h8300h\libgcc.a(_clzsi2.o)
 .bss           0x00ffc338        0x0 c:\program files\renesas\hew\tools\kpit cummins\gnuh8-elf\v11.02\h8300-elf\lib\gcc\h8300-elf\4.5-GNUH8_v11.02\h8300h\libgcc.a(_pack_sf.o)
 .bss           0x00ffc338        0x0 c:\program files\renesas\hew\tools\kpit cummins\gnuh8-elf\v11.02\h8300-elf\lib\gcc\h8300-elf\4.5-GNUH8_v11.02\h8300h\libgcc.a(_unpack_sf.o)
 .bss           0x00ffc338        0x0 c:\program files\renesas\hew\tools\kpit cummins\gnuh8-elf\v11.02\h8300-elf\lib\gcc\h8300-elf\4.5-GNUH8_v11.02\h8300h\libgcc.a(_fpcmp_parts_sf.o)
 .bss           0x00ffc338        0x0 c:\program files\renesas\hew\tools\kpit cummins\gnuh8-elf\v11.02\h8300-elf\lib\gcc\h8300-elf\4.5-GNUH8_v11.02\h8300h\libgcc.a(_clz.o)
 .bss           0x00ffc338        0x0 C:\WorkSpace\artsat\BBM\20120510\20120510\Debug\lib20120510.a(exit.o)
 .bss           0x00ffc338        0x0 C:\WorkSpace\artsat\BBM\20120510\20120510\Debug\lib20120510.a(_exit.o)
 *(.bss.*)
 *(COMMON)
                0x00ffc338                _ebss = .
                0x00ffc338                _end = .

.stack          0x00ffff00        0x0
                0x00ffff00                _stack = .
LOAD C:\WorkSpace\artsat\BBM\20120510\20120510\Debug\vects.o
LOAD C:\WorkSpace\artsat\BBM\20120510\20120510\Debug\start.o
LOAD C:\WorkSpace\artsat\BBM\20120510\20120510\Debug\sci_util.o
LOAD C:\WorkSpace\artsat\BBM\20120510\20120510\Debug\sci1.o
LOAD C:\WorkSpace\artsat\BBM\20120510\20120510\Debug\sci0.o
LOAD C:\WorkSpace\artsat\BBM\20120510\20120510\Debug\inthandler.o
LOAD C:\WorkSpace\artsat\BBM\20120510\20120510\Debug\init.o
LOAD C:\WorkSpace\artsat\BBM\20120510\20120510\Debug\hwinit.o
LOAD C:\WorkSpace\artsat\BBM\20120510\20120510\Debug\20120510.o
START GROUP
LOAD c:\program files\renesas\hew\tools\kpit cummins\gnuh8-elf\v11.02\h8300-elf\lib\gcc\h8300-elf\4.5-GNUH8_v11.02\h8300h\libgcc.a
LOAD C:\WorkSpace\artsat\BBM\20120510\20120510\Debug\lib20120510.a
END GROUP
OUTPUT(C:\WorkSpace\artsat\BBM\20120510\20120510\Debug\20120510.x elf32-h8300)

.debug_abbrev   0x00000000      0x697
 .debug_abbrev  0x00000000       0x62 C:\WorkSpace\artsat\BBM\20120510\20120510\Debug\vects.o
 .debug_abbrev  0x00000062       0x14 C:\WorkSpace\artsat\BBM\20120510\20120510\Debug\start.o
 .debug_abbrev  0x00000076      0x121 C:\WorkSpace\artsat\BBM\20120510\20120510\Debug\sci_util.o
 .debug_abbrev  0x00000197      0x1a8 C:\WorkSpace\artsat\BBM\20120510\20120510\Debug\sci1.o
 .debug_abbrev  0x0000033f      0x1a8 C:\WorkSpace\artsat\BBM\20120510\20120510\Debug\sci0.o
 .debug_abbrev  0x000004e7       0x27 C:\WorkSpace\artsat\BBM\20120510\20120510\Debug\inthandler.o
 .debug_abbrev  0x0000050e       0xbe C:\WorkSpace\artsat\BBM\20120510\20120510\Debug\init.o
 .debug_abbrev  0x000005cc       0x32 C:\WorkSpace\artsat\BBM\20120510\20120510\Debug\hwinit.o
 .debug_abbrev  0x000005fe       0x99 C:\WorkSpace\artsat\BBM\20120510\20120510\Debug\20120510.o

.debug_info     0x00000000     0x197c
 .debug_info    0x00000000       0x64 C:\WorkSpace\artsat\BBM\20120510\20120510\Debug\vects.o
 .debug_info    0x00000064       0x97 C:\WorkSpace\artsat\BBM\20120510\20120510\Debug\start.o
 .debug_info    0x000000fb      0x3bc C:\WorkSpace\artsat\BBM\20120510\20120510\Debug\sci_util.o
 .debug_info    0x000004b7      0x69b C:\WorkSpace\artsat\BBM\20120510\20120510\Debug\sci1.o
 .debug_info    0x00000b52      0x69b C:\WorkSpace\artsat\BBM\20120510\20120510\Debug\sci0.o
 .debug_info    0x000011ed      0x355 C:\WorkSpace\artsat\BBM\20120510\20120510\Debug\inthandler.o
 .debug_info    0x00001542      0x31b C:\WorkSpace\artsat\BBM\20120510\20120510\Debug\init.o
 .debug_info    0x0000185d       0x53 C:\WorkSpace\artsat\BBM\20120510\20120510\Debug\hwinit.o
 .debug_info    0x000018b0       0xcc C:\WorkSpace\artsat\BBM\20120510\20120510\Debug\20120510.o

.debug_line     0x00000000     0x15b5
 .debug_line    0x00000000       0x59 C:\WorkSpace\artsat\BBM\20120510\20120510\Debug\vects.o
 .debug_line    0x00000059       0x7c C:\WorkSpace\artsat\BBM\20120510\20120510\Debug\start.o
 .debug_line    0x000000d5      0x5a0 C:\WorkSpace\artsat\BBM\20120510\20120510\Debug\sci_util.o
 .debug_line    0x00000675      0x4ac C:\WorkSpace\artsat\BBM\20120510\20120510\Debug\sci1.o
 .debug_line    0x00000b21      0x4ac C:\WorkSpace\artsat\BBM\20120510\20120510\Debug\sci0.o
 .debug_line    0x00000fcd      0x2ce C:\WorkSpace\artsat\BBM\20120510\20120510\Debug\inthandler.o
 .debug_line    0x0000129b      0x142 C:\WorkSpace\artsat\BBM\20120510\20120510\Debug\init.o
 .debug_line    0x000013dd       0x6a C:\WorkSpace\artsat\BBM\20120510\20120510\Debug\hwinit.o
 .debug_line    0x00001447      0x16e C:\WorkSpace\artsat\BBM\20120510\20120510\Debug\20120510.o

.debug_pubnames
                0x00000000      0x56a
 .debug_pubnames
                0x00000000       0x26 C:\WorkSpace\artsat\BBM\20120510\20120510\Debug\vects.o
 .debug_pubnames
                0x00000026       0xe3 C:\WorkSpace\artsat\BBM\20120510\20120510\Debug\sci_util.o
 .debug_pubnames
                0x00000109       0xd9 C:\WorkSpace\artsat\BBM\20120510\20120510\Debug\sci1.o
 .debug_pubnames
                0x000001e2       0xd9 C:\WorkSpace\artsat\BBM\20120510\20120510\Debug\sci0.o
 .debug_pubnames
                0x000002bb      0x22c C:\WorkSpace\artsat\BBM\20120510\20120510\Debug\inthandler.o
 .debug_pubnames
                0x000004e7       0x44 C:\WorkSpace\artsat\BBM\20120510\20120510\Debug\init.o
 .debug_pubnames
                0x0000052b       0x24 C:\WorkSpace\artsat\BBM\20120510\20120510\Debug\hwinit.o
 .debug_pubnames
                0x0000054f       0x1b C:\WorkSpace\artsat\BBM\20120510\20120510\Debug\20120510.o

.debug_pubtypes
                0x00000000       0xcb
 .debug_pubtypes
                0x00000000       0x19 C:\WorkSpace\artsat\BBM\20120510\20120510\Debug\vects.o
 .debug_pubtypes
                0x00000019       0x12 C:\WorkSpace\artsat\BBM\20120510\20120510\Debug\sci_util.o
 .debug_pubtypes
                0x0000002b       0x1d C:\WorkSpace\artsat\BBM\20120510\20120510\Debug\sci1.o
 .debug_pubtypes
                0x00000048       0x1d C:\WorkSpace\artsat\BBM\20120510\20120510\Debug\sci0.o
 .debug_pubtypes
                0x00000065       0x42 C:\WorkSpace\artsat\BBM\20120510\20120510\Debug\init.o
 .debug_pubtypes
                0x000000a7       0x12 C:\WorkSpace\artsat\BBM\20120510\20120510\Debug\hwinit.o
 .debug_pubtypes
                0x000000b9       0x12 C:\WorkSpace\artsat\BBM\20120510\20120510\Debug\20120510.o

.debug_str      0x00000000      0x6d3
 .debug_str     0x00000000       0x6b C:\WorkSpace\artsat\BBM\20120510\20120510\Debug\vects.o
 .debug_str     0x0000006b      0x131 C:\WorkSpace\artsat\BBM\20120510\20120510\Debug\sci_util.o
                                0x16f (size before relaxing)
 .debug_str     0x0000019c      0x175 C:\WorkSpace\artsat\BBM\20120510\20120510\Debug\sci1.o
                                0x1de (size before relaxing)
 .debug_str     0x00000311      0x108 C:\WorkSpace\artsat\BBM\20120510\20120510\Debug\sci0.o
                                0x1de (size before relaxing)
 .debug_str     0x00000419      0x1b5 C:\WorkSpace\artsat\BBM\20120510\20120510\Debug\inthandler.o
                                0x1cc (size before relaxing)
 .debug_str     0x000005ce       0x77 C:\WorkSpace\artsat\BBM\20120510\20120510\Debug\init.o
                                 0xd0 (size before relaxing)
 .debug_str     0x00000645       0x41 C:\WorkSpace\artsat\BBM\20120510\20120510\Debug\hwinit.o
                                 0x90 (size before relaxing)
 .debug_str     0x00000686       0x4d C:\WorkSpace\artsat\BBM\20120510\20120510\Debug\20120510.o
                                 0xaf (size before relaxing)

.comment        0x00000000       0x1c
 .comment       0x00000000       0x1c C:\WorkSpace\artsat\BBM\20120510\20120510\Debug\vects.o
                                 0x1d (size before relaxing)
 .comment       0x00000000       0x1d C:\WorkSpace\artsat\BBM\20120510\20120510\Debug\sci_util.o
 .comment       0x00000000       0x1d C:\WorkSpace\artsat\BBM\20120510\20120510\Debug\sci1.o
 .comment       0x00000000       0x1d C:\WorkSpace\artsat\BBM\20120510\20120510\Debug\sci0.o
 .comment       0x00000000       0x1d C:\WorkSpace\artsat\BBM\20120510\20120510\Debug\inthandler.o
 .comment       0x00000000       0x1d C:\WorkSpace\artsat\BBM\20120510\20120510\Debug\init.o
 .comment       0x00000000       0x1d C:\WorkSpace\artsat\BBM\20120510\20120510\Debug\hwinit.o
 .comment       0x00000000       0x1d C:\WorkSpace\artsat\BBM\20120510\20120510\Debug\20120510.o
 .comment       0x00000000       0x1d c:\program files\renesas\hew\tools\kpit cummins\gnuh8-elf\v11.02\h8300-elf\lib\gcc\h8300-elf\4.5-GNUH8_v11.02\h8300h\libgcc.a(_fixunssfsi.o)
 .comment       0x00000000       0x1d c:\program files\renesas\hew\tools\kpit cummins\gnuh8-elf\v11.02\h8300-elf\lib\gcc\h8300-elf\4.5-GNUH8_v11.02\h8300h\libgcc.a(_addsub_sf.o)
 .comment       0x00000000       0x1d c:\program files\renesas\hew\tools\kpit cummins\gnuh8-elf\v11.02\h8300-elf\lib\gcc\h8300-elf\4.5-GNUH8_v11.02\h8300h\libgcc.a(_mul_sf.o)
 .comment       0x00000000       0x1d c:\program files\renesas\hew\tools\kpit cummins\gnuh8-elf\v11.02\h8300-elf\lib\gcc\h8300-elf\4.5-GNUH8_v11.02\h8300h\libgcc.a(_ge_sf.o)
 .comment       0x00000000       0x1d c:\program files\renesas\hew\tools\kpit cummins\gnuh8-elf\v11.02\h8300-elf\lib\gcc\h8300-elf\4.5-GNUH8_v11.02\h8300h\libgcc.a(_lt_sf.o)
 .comment       0x00000000       0x1d c:\program files\renesas\hew\tools\kpit cummins\gnuh8-elf\v11.02\h8300-elf\lib\gcc\h8300-elf\4.5-GNUH8_v11.02\h8300h\libgcc.a(_sf_to_si.o)
 .comment       0x00000000       0x1d c:\program files\renesas\hew\tools\kpit cummins\gnuh8-elf\v11.02\h8300-elf\lib\gcc\h8300-elf\4.5-GNUH8_v11.02\h8300h\libgcc.a(_thenan_sf.o)
 .comment       0x00000000       0x1d c:\program files\renesas\hew\tools\kpit cummins\gnuh8-elf\v11.02\h8300-elf\lib\gcc\h8300-elf\4.5-GNUH8_v11.02\h8300h\libgcc.a(_usi_to_sf.o)
 .comment       0x00000000       0x1d c:\program files\renesas\hew\tools\kpit cummins\gnuh8-elf\v11.02\h8300-elf\lib\gcc\h8300-elf\4.5-GNUH8_v11.02\h8300h\libgcc.a(_clzsi2.o)
 .comment       0x00000000       0x1d c:\program files\renesas\hew\tools\kpit cummins\gnuh8-elf\v11.02\h8300-elf\lib\gcc\h8300-elf\4.5-GNUH8_v11.02\h8300h\libgcc.a(_pack_sf.o)
 .comment       0x00000000       0x1d c:\program files\renesas\hew\tools\kpit cummins\gnuh8-elf\v11.02\h8300-elf\lib\gcc\h8300-elf\4.5-GNUH8_v11.02\h8300h\libgcc.a(_unpack_sf.o)
 .comment       0x00000000       0x1d c:\program files\renesas\hew\tools\kpit cummins\gnuh8-elf\v11.02\h8300-elf\lib\gcc\h8300-elf\4.5-GNUH8_v11.02\h8300h\libgcc.a(_fpcmp_parts_sf.o)
 .comment       0x00000000       0x1d c:\program files\renesas\hew\tools\kpit cummins\gnuh8-elf\v11.02\h8300-elf\lib\gcc\h8300-elf\4.5-GNUH8_v11.02\h8300h\libgcc.a(_clz.o)
 .comment       0x00000000       0x1d C:\WorkSpace\artsat\BBM\20120510\20120510\Debug\lib20120510.a(exit.o)

.debug_aranges  0x00000000      0x100
 .debug_aranges
                0x00000000       0x20 C:\WorkSpace\artsat\BBM\20120510\20120510\Debug\start.o
 .debug_aranges
                0x00000020       0x20 C:\WorkSpace\artsat\BBM\20120510\20120510\Debug\sci_util.o
 .debug_aranges
                0x00000040       0x20 C:\WorkSpace\artsat\BBM\20120510\20120510\Debug\sci1.o
 .debug_aranges
                0x00000060       0x20 C:\WorkSpace\artsat\BBM\20120510\20120510\Debug\sci0.o
 .debug_aranges
                0x00000080       0x20 C:\WorkSpace\artsat\BBM\20120510\20120510\Debug\inthandler.o
 .debug_aranges
                0x000000a0       0x20 C:\WorkSpace\artsat\BBM\20120510\20120510\Debug\init.o
 .debug_aranges
                0x000000c0       0x20 C:\WorkSpace\artsat\BBM\20120510\20120510\Debug\hwinit.o
 .debug_aranges
                0x000000e0       0x20 C:\WorkSpace\artsat\BBM\20120510\20120510\Debug\20120510.o

.debug_frame    0x00000000      0xc74
 .debug_frame   0x00000000      0x1d0 C:\WorkSpace\artsat\BBM\20120510\20120510\Debug\sci_util.o
 .debug_frame   0x000001d0      0x210 C:\WorkSpace\artsat\BBM\20120510\20120510\Debug\sci1.o
 .debug_frame   0x000003e0      0x210 C:\WorkSpace\artsat\BBM\20120510\20120510\Debug\sci0.o
 .debug_frame   0x000005f0      0x590 C:\WorkSpace\artsat\BBM\20120510\20120510\Debug\inthandler.o
 .debug_frame   0x00000b80       0x84 C:\WorkSpace\artsat\BBM\20120510\20120510\Debug\init.o
 .debug_frame   0x00000c04       0x38 C:\WorkSpace\artsat\BBM\20120510\20120510\Debug\hwinit.o
 .debug_frame   0x00000c3c       0x38 C:\WorkSpace\artsat\BBM\20120510\20120510\Debug\20120510.o

.debug_loc      0x00000000      0xe18
 .debug_loc     0x00000000      0x210 C:\WorkSpace\artsat\BBM\20120510\20120510\Debug\sci_util.o
 .debug_loc     0x00000210      0x23c C:\WorkSpace\artsat\BBM\20120510\20120510\Debug\sci1.o
 .debug_loc     0x0000044c      0x23c C:\WorkSpace\artsat\BBM\20120510\20120510\Debug\sci0.o
 .debug_loc     0x00000688      0x6b4 C:\WorkSpace\artsat\BBM\20120510\20120510\Debug\inthandler.o
 .debug_loc     0x00000d3c       0x84 C:\WorkSpace\artsat\BBM\20120510\20120510\Debug\init.o
 .debug_loc     0x00000dc0       0x2c C:\WorkSpace\artsat\BBM\20120510\20120510\Debug\hwinit.o
 .debug_loc     0x00000dec       0x2c C:\WorkSpace\artsat\BBM\20120510\20120510\Debug\20120510.o

.debug_ranges   0x00000000       0x50
 .debug_ranges  0x00000000       0x50 C:\WorkSpace\artsat\BBM\20120510\20120510\Debug\sci_util.o


==============================================================

Listfile generated by KPIT GNUH8 [ELF]-v11.02 on Wednesday, May 09, 2012, 21:05:06

Build options:

-T "C:\WorkSpace\artsat\BBM\20120510\20120510\Debug\20120510_Debug_auto.gsi"
-T "C:\WorkSpace\artsat\BBM\20120510\20120510\Debug\20120510_input.tmp" 
-L "c:\program files\renesas\hew\tools\kpit cummins\gnuh8-elf\v11.02\h8300-elf\lib\gcc\h8300-elf\4.5-GNUH8_v11.02\h8300h"
-L "C:\WorkSpace\artsat\BBM\20120510\20120510\Debug"
-Map "C:\WorkSpace\artsat\BBM\20120510\20120510\Debug\20120510.map"
-( -l "gcc" -l "20120510" -)
-o "C:\WorkSpace\artsat\BBM\20120510\20120510\Debug\20120510.x"
-e _start
INPUT("C:\WorkSpace\artsat\BBM\20120510\20120510\Debug\vects.o")
INPUT("C:\WorkSpace\artsat\BBM\20120510\20120510\Debug\start.o")
INPUT("C:\WorkSpace\artsat\BBM\20120510\20120510\Debug\sci_util.o")
INPUT("C:\WorkSpace\artsat\BBM\20120510\20120510\Debug\sci1.o")
INPUT("C:\WorkSpace\artsat\BBM\20120510\20120510\Debug\sci0.o")
INPUT("C:\WorkSpace\artsat\BBM\20120510\20120510\Debug\inthandler.o")
INPUT("C:\WorkSpace\artsat\BBM\20120510\20120510\Debug\init.o")
INPUT("C:\WorkSpace\artsat\BBM\20120510\20120510\Debug\hwinit.o")
INPUT("C:\WorkSpace\artsat\BBM\20120510\20120510\Debug\20120510.o")
