Archive member included because of file (symbol)

c:\program files\renesas\hew\tools\kpit\gnuh8-elf\v12.01\h8300-elf\lib\gcc\h8300-elf\4.6-GNUH8_v12.01\h8300h\libgcc.a(_divsi3.o)
                              C:\Users\USER\Desktop\com\í êMån\20131207\20120510\Debug\sci2.o (__udivsi3)
c:\program files\renesas\hew\tools\kpit\gnuh8-elf\v12.01\h8300-elf\lib\gcc\h8300-elf\4.6-GNUH8_v12.01\h8300h\libgcc.a(_mulsi3.o)
                              C:\Users\USER\Desktop\com\í êMån\20131207\20120510\Debug\sci2.o (__mulsi3)
C:\Users\USER\Desktop\com\í êMån\20131207\20120510\Debug\lib20120510.a(exit.o)
                              C:\Users\USER\Desktop\com\í êMån\20131207\20120510\Debug\start.o (exit)
C:\Users\USER\Desktop\com\í êMån\20131207\20120510\Debug\lib20120510.a(newfree.o)
                              C:\Users\USER\Desktop\com\í êMån\20131207\20120510\Debug\rx.o (free)
C:\Users\USER\Desktop\com\í êMån\20131207\20120510\Debug\lib20120510.a(newheap.o)
                              C:\Users\USER\Desktop\com\í êMån\20131207\20120510\Debug\lib20120510.a(newfree.o) (_heap_of_memory)
C:\Users\USER\Desktop\com\í êMån\20131207\20120510\Debug\lib20120510.a(newmalloc.o)
                              C:\Users\USER\Desktop\com\í êMån\20131207\20120510\Debug\rx_protcol_inv.o (malloc)
C:\Users\USER\Desktop\com\í êMån\20131207\20120510\Debug\lib20120510.a(_exit.o)
                              C:\Users\USER\Desktop\com\í êMån\20131207\20120510\Debug\lib20120510.a(exit.o) (_exit)

Allocating common symbols
Common symbol       size              file

command_H           0x78              C:\Users\USER\Desktop\com\í êMån\20131207\20120510\Debug\command.o
P2_DDR              0x1               C:\Users\USER\Desktop\com\í êMån\20131207\20120510\Debug\iic2.o
ena_overa           0x3               C:\Users\USER\Desktop\com\í êMån\20131207\20120510\Debug\teleme.o
flag_dispAD         0x3               C:\Users\USER\Desktop\com\í êMån\20131207\20120510\Debug\teleme.o
flag_overa          0x3               C:\Users\USER\Desktop\com\í êMån\20131207\20120510\Debug\teleme.o
flag_send_fm        0x1               C:\Users\USER\Desktop\com\í êMån\20131207\20120510\Debug\rx.o
i                   0x2               C:\Users\USER\Desktop\com\í êMån\20131207\20120510\Debug\rx_protcol_inv.o
ena_alive           0x3               C:\Users\USER\Desktop\com\í êMån\20131207\20120510\Debug\pwr.o
fcslo               0x1               C:\Users\USER\Desktop\com\í êMån\20131207\20120510\Debug\rx_protcol_inv.o
flag_tof            0x1               C:\Users\USER\Desktop\com\í êMån\20131207\20120510\Debug\mission.o
flag_rx             0x3               C:\Users\USER\Desktop\com\í êMån\20131207\20120510\Debug\rx_protcol_inv.o
flag_dteleme        0x3               C:\Users\USER\Desktop\com\í êMån\20131207\20120510\Debug\teleme.o
flag_exe            0x3               C:\Users\USER\Desktop\com\í êMån\20131207\20120510\Debug\message.o
sms_time            0x4               C:\Users\USER\Desktop\com\í êMån\20131207\20120510\Debug\mission.o
ena_rteleme         0x3               C:\Users\USER\Desktop\com\í êMån\20131207\20120510\Debug\teleme.o
flag_cpr            0x3               C:\Users\USER\Desktop\com\í êMån\20131207\20120510\Debug\mission.o
ena_ateleme         0x3               C:\Users\USER\Desktop\com\í êMån\20131207\20120510\Debug\teleme.o
flag_pwrt           0x3               C:\Users\USER\Desktop\com\í êMån\20131207\20120510\Debug\pwr.o
DT_time             0x2               C:\Users\USER\Desktop\com\í êMån\20131207\20120510\Debug\rx.o
flag_tx             0x3               C:\Users\USER\Desktop\com\í êMån\20131207\20120510\Debug\rx.o
ena_pwrt            0x3               C:\Users\USER\Desktop\com\í êMån\20131207\20120510\Debug\pwr.o
flag_ad             0x3               C:\Users\USER\Desktop\com\í êMån\20131207\20120510\Debug\teleme.o
my_wdt              0x4               C:\Users\USER\Desktop\com\í êMån\20131207\20120510\Debug\teleme.o
uplink_rx_buff      0x4               C:\Users\USER\Desktop\com\í êMån\20131207\20120510\Debug\rx_protcol_inv.o
flag_iteleme        0x3               C:\Users\USER\Desktop\com\í êMån\20131207\20120510\Debug\teleme.o
smr_time            0x4               C:\Users\USER\Desktop\com\í êMån\20131207\20120510\Debug\mission.o
FM_buffer_length    0xc               C:\Users\USER\Desktop\com\í êMån\20131207\20120510\Debug\rx.o
ena_iteleme         0x3               C:\Users\USER\Desktop\com\í êMån\20131207\20120510\Debug\teleme.o
flag_ton            0x1               C:\Users\USER\Desktop\com\í êMån\20131207\20120510\Debug\mission.o
flag_smr            0x3               C:\Users\USER\Desktop\com\í êMån\20131207\20120510\Debug\mission.o
kbit                0x2               C:\Users\USER\Desktop\com\í êMån\20131207\20120510\Debug\rx_protcol_inv.o
ena_mywdt           0x3               C:\Users\USER\Desktop\com\í êMån\20131207\20120510\Debug\teleme.o
itu1_cnt            0x4               C:\Users\USER\Desktop\com\í êMån\20131207\20120510\Debug\teleme.o
ena_dteleme         0x3               C:\Users\USER\Desktop\com\í êMån\20131207\20120510\Debug\teleme.o
flag_ateleme        0x3               C:\Users\USER\Desktop\com\í êMån\20131207\20120510\Debug\teleme.o
ena_misst           0x3               C:\Users\USER\Desktop\com\í êMån\20131207\20120510\Debug\mission.o
mission_cnt         0x4               C:\Users\USER\Desktop\com\í êMån\20131207\20120510\Debug\mission.o
time                0x2               C:\Users\USER\Desktop\com\í êMån\20131207\20120510\Debug\timer.o
flag_sms            0x3               C:\Users\USER\Desktop\com\í êMån\20131207\20120510\Debug\mission.o
FmPreamble          0x4               C:\Users\USER\Desktop\com\í êMån\20131207\20120510\Debug\rx.o
command_M           0x78              C:\Users\USER\Desktop\com\í êMån\20131207\20120510\Debug\command.o
stuff               0x1               C:\Users\USER\Desktop\com\í êMån\20131207\20120510\Debug\rx.o
info_length         0x2               C:\Users\USER\Desktop\com\í êMån\20131207\20120510\Debug\rx_protcol_inv.o
fcsflag_send_fm     0x1               C:\Users\USER\Desktop\com\í êMån\20131207\20120510\Debug\rx.o
ena_ad              0x3               C:\Users\USER\Desktop\com\í êMån\20131207\20120510\Debug\teleme.o
fcshi               0x1               C:\Users\USER\Desktop\com\í êMån\20131207\20120510\Debug\rx_protcol_inv.o
flag_oteleme        0x3               C:\Users\USER\Desktop\com\í êMån\20131207\20120510\Debug\teleme.o
flag_rteleme        0x3               C:\Users\USER\Desktop\com\í êMån\20131207\20120510\Debug\teleme.o
flag_alive          0x3               C:\Users\USER\Desktop\com\í êMån\20131207\20120510\Debug\pwr.o
ena_dispAD          0x3               C:\Users\USER\Desktop\com\í êMån\20131207\20120510\Debug\teleme.o
FM_sender_num       0x1               C:\Users\USER\Desktop\com\í êMån\20131207\20120510\Debug\rx.o
mpx                 0x20              C:\Users\USER\Desktop\com\í êMån\20131207\20120510\Debug\teleme.o
flag_scirx          0x3               C:\Users\USER\Desktop\com\í êMån\20131207\20120510\Debug\message.o
status              0x7f              C:\Users\USER\Desktop\com\í êMån\20131207\20120510\Debug\teleme.o
FM_buffer_num       0x1               C:\Users\USER\Desktop\com\í êMån\20131207\20120510\Debug\rx.o
FM_buffer           0xc00             C:\Users\USER\Desktop\com\í êMån\20131207\20120510\Debug\rx.o
flag_misst          0x3               C:\Users\USER\Desktop\com\í êMån\20131207\20120510\Debug\mission.o
command_L           0x78              C:\Users\USER\Desktop\com\í êMån\20131207\20120510\Debug\command.o
ena_oteleme         0x3               C:\Users\USER\Desktop\com\í êMån\20131207\20120510\Debug\teleme.o
message_global      0xcc              C:\Users\USER\Desktop\com\í êMån\20131207\20120510\Debug\teleme.o
DT_mode             0x1               C:\Users\USER\Desktop\com\í êMån\20131207\20120510\Debug\rx.o
FM_mode             0x1               C:\Users\USER\Desktop\com\í êMån\20131207\20120510\Debug\rx.o

Memory Configuration

Name             Origin             Length             Attributes
*default*        0x00000000         0xffffffff

Linker script and memory map


.vects          0x00000000      0x100
 *(.vects)
 .vects         0x00000000      0x100 C:\Users\USER\Desktop\com\í êMån\20131207\20120510\Debug\vects.o
                0x00000000                HardwareVectors

.text           0x00000400    0x11240
 *(.text)
 .text          0x00000400        0x0 C:\Users\USER\Desktop\com\í êMån\20131207\20120510\Debug\vects.o
 .text          0x00000400      0x17c C:\Users\USER\Desktop\com\í êMån\20131207\20120510\Debug\timer.o
                0x00000400                delay_ms
                0x00000482                delay_us
                0x000004e4                delay_us_rx
 .text          0x0000057c     0x22d6 C:\Users\USER\Desktop\com\í êMån\20131207\20120510\Debug\teleme.o
                0x0000057c                InitTelemetry
                0x000005be                SetTelemetry_Rough
                0x00000a4a                SetTelemetry_Detail
                0x00000ed6                SetTelemetry_API
                0x0000110c                SetTelemetry_Initial
                0x0000122a                Read_Initial
                0x00001516                OBC_Majority
                0x000015d8                Error_Majority
                0x00001696                WriteIicBootMode
                0x00001a30                WriteIicBootFlag
                0x00001dca                WriteIicBootTime
                0x0000230a                WriteIicCameraParam
                0x000025aa                WriteIicMorseParam
 .text          0x00002852       0x50 C:\Users\USER\Desktop\com\í êMån\20131207\20120510\Debug\start.o
                0x00002852                start
 .text          0x000028a2      0x12c C:\Users\USER\Desktop\com\í êMån\20131207\20120510\Debug\sci_util.o
                0x000028a2                debug_sci_init
                0x000028d2                debug_putc
                0x000028f0                debug_puts
                0x00002912                debug_getc
                0x00002926                debug_puthex
                0x00002980                debug_putdec
                0x000029a2                HexToAscii
 .text          0x000029ce      0x6d0 C:\Users\USER\Desktop\com\í êMån\20131207\20120510\Debug\sci2.o
                0x000029ce                sci2_init
                0x00002b02                sci2_putc
                0x00002bc2                sci2_puthex
                0x00002c0a                sci2_putdec
                0x00002d6c                sci2_putdoublehex
                0x00002d98                sci2_putfourhex
                0x00002dca                sci2_putcrlf
                0x00002de2                sci2_puts
                0x00002e4e                sci2_getc
                0x00002ee8                INT_ERI2
                0x00002f1a                INT_RXI2
                0x00002fae                INT_TXI2
                0x0000306c                INT_TEI2
 .text          0x0000309e      0x856 C:\Users\USER\Desktop\com\í êMån\20131207\20120510\Debug\sci1.o
                0x0000309e                sci1_init
                0x000031d2                sci1_putc
                0x00003292                sci1_puthex
                0x000032da                sci1_putdec
                0x0000343c                sci1_putdoublehex
                0x00003468                sci1_putfourhex
                0x0000349a                sci1_putcrlf
                0x000034b2                sci1_puts
                0x0000351e                sci1_getc
                0x000035b8                INT_ERI1
                0x000035ea                sci1_puts_rx
                0x00003770                INT_RXI1
                0x00003804                INT_TXI1
                0x000038c2                INT_TEI1
 .text          0x000038f4      0x6d0 C:\Users\USER\Desktop\com\í êMån\20131207\20120510\Debug\sci0.o
                0x000038f4                sci0_init
                0x00003a28                sci0_putc
                0x00003ae8                sci0_puthex
                0x00003b30                sci0_putdec
                0x00003c92                sci0_putdoublehex
                0x00003cbe                sci0_putfourhex
                0x00003cf0                sci0_putcrlf
                0x00003d08                sci0_puts
                0x00003d74                sci0_getc
                0x00003e0e                INT_ERI0
                0x00003e40                INT_RXI0
                0x00003ed4                INT_TXI0
                0x00003f92                INT_TEI0
 .text          0x00003fc4      0x9a0 C:\Users\USER\Desktop\com\í êMån\20131207\20120510\Debug\rx_protcol_inv.o
                0x00003fc4                init_itu
                0x00004002                bitin
                0x000040c2                get_byte
                0x000041e0                get_buff
                0x00004368                precrc_bit
                0x000043bc                crc_length
                0x0000442a                Ax_to_info
                0x00004748                get_data
                0x000048fa                rx_init
 .text          0x00004964      0x26a C:\Users\USER\Desktop\com\í êMån\20131207\20120510\Debug\rx_pll_inv.o
                0x00004964                out_bit
                0x000049c2                strobe
                0x000049f6                out_bits
                0x00004a54                set_reference_divider
                0x00004a8e                set_option_register
                0x00004b0e                set_programmable_divider
                0x00004b60                pll_init_rx
 .text          0x00004bce       0xe4 C:\Users\USER\Desktop\com\í êMån\20131207\20120510\Debug\rx.o
                0x00004bce                RX
                0x00004c64                check_rx_working
 .text          0x00004cb2      0x248 C:\Users\USER\Desktop\com\í êMån\20131207\20120510\Debug\pwr.o
                0x00004cb2                InitPowerTelemetry
                0x00004cd6                RequestPowerTelemetry
                0x00004cf0                UpdatePowerTelemetry
                0x00004e8a                RequestMainShutdown
                0x00004ec6                SendHDRtoPIC
                0x00004ee0                SendHDStoPIC
 .text          0x00004efa     0x16b2 C:\Users\USER\Desktop\com\í êMån\20131207\20120510\Debug\put_status.o
                0x00004efa                SendStatusToGS
                0x00005522                SendTelemetryToGS
                0x0000554a                PutOut_Rough
                0x00005974                PutOut_Detail
                0x00005d9e                PutOut_API
                0x000061b2                PutOut_Initial
 .text          0x000065ac      0xe1e C:\Users\USER\Desktop\com\í êMån\20131207\20120510\Debug\mission.o
                0x000065ac                InitMissionTelemetry
                0x000065c6                SendMissionTelemetry
                0x0000670e                RequestMissionReboot
                0x00006798                ScheduledRequestMissionReboot
                0x00006a2c                ScheduledRequestMissionSwitch
                0x00006f8e                RequestMissionShutdown
                0x0000700a                PronounceMissionAbort
                0x00007072                itu2_init
                0x000070fe                INT_IMIA2
                0x000071d2                CheckNowTime
                0x0000734e                DegitalkerON
                0x0000738c                DegitalkerOFF
 .text          0x000073ca     0x1ff2 C:\Users\USER\Desktop\com\í êMån\20131207\20120510\Debug\message.o
                0x000073ca                InitMessage
                0x000073e4                SplitMessage_SCI0
                0x000076b0                SplitMessage_SCI1
                0x00007aec                SplitMessage_SCI2
                0x00007ee2                RecognizeCommand
                0x00008334                RecognizeMissionCommand
                0x0000879e                FindCommand
                0x000087c2                TransmitMessage
                0x0000880a                TransmitDigitalker
                0x00008852                InitPLL
                0x000088dc                SendMessage
                0x00008ce0                FinishSendMessage
                0x00008d28                FinishCommunication
                0x00008df8                SendStatusMessage
                0x00009386                CheckPowerReply
 .text          0x000093bc      0x434 C:\Users\USER\Desktop\com\í êMån\20131207\20120510\Debug\itu1.o
                0x000093bc                itu1_init
                0x0000944e                INT_IMIA1
 .text          0x000097f0      0x10a C:\Users\USER\Desktop\com\í êMån\20131207\20120510\Debug\itu0.o
                0x000097f0                itu0_init
                0x0000986e                INT_IMIA0
                0x000098b4                INT_IMIB0
 .text          0x000098fa      0x168 C:\Users\USER\Desktop\com\í êMån\20131207\20120510\Debug\inthandler.o
                0x000098fa                INT_NMI
                0x00009906                INT_TRAP1
                0x00009912                INT_TRAP2
                0x0000991e                INT_TRAP3
                0x0000992a                INT_TRAP4
                0x00009936                INT_IRQ0
                0x00009942                INT_IRQ1
                0x0000994e                INT_IRQ2
                0x0000995a                INT_IRQ3
                0x00009966                INT_IRQ4
                0x00009972                INT_IRQ5
                0x0000997e                INT_WOVI
                0x0000998a                INT_CMI
                0x00009996                INT_ADI
                0x000099a2                INT_OVI0
                0x000099ae                INT_IMIB1
                0x000099ba                INT_OVI1
                0x000099c6                INT_OVI2
                0x000099d2                INT_CMIA0
                0x000099de                INT_CMIB0
                0x000099ea                INT_CMIA1B1
                0x000099f6                INT_TOVI0_1
                0x00009a02                INT_CMIA2
                0x00009a0e                INT_CMIB2
                0x00009a1a                INT_CMIA3B3
                0x00009a26                INT_TOVI2_3
                0x00009a32                INT_DEND0A
                0x00009a3e                INT_DEND0B
                0x00009a4a                INT_DEND1A
                0x00009a56                INT_DEND1B
 .text          0x00009a62      0x2e4 C:\Users\USER\Desktop\com\í êMån\20131207\20120510\Debug\init.o
                0x00009a62                Init_MyFunction
                0x00009b8e                Init_Bus
                0x00009cfa                Init_Peripherals
 .text          0x00009d46      0x7d8 C:\Users\USER\Desktop\com\í êMån\20131207\20120510\Debug\iic2.o
                0x00009d46                IIC2_EEPWAIT
                0x0000a144                IIC2_EEPSTOP
                0x0000a1de                IIC2_EEPREAD
                0x0000a302                IIC2_EEPWRITE
                0x0000a402                IIC2_EEPRESET
                0x0000a4c4                IIC2_EEPINIT
                0x0000a4e6                IIC2_EEPCHANGE
 .text          0x0000a51e      0x7de C:\Users\USER\Desktop\com\í êMån\20131207\20120510\Debug\iic1.o
                0x0000a51e                IIC1_EEPWAIT
                0x0000a922                IIC1_EEPSTOP
                0x0000a9bc                IIC1_EEPREAD
                0x0000aae0                IIC1_EEPWRITE
                0x0000abe0                IIC1_EEPRESET
                0x0000aca2                IIC1_EEPINIT
                0x0000acc4                IIC1_EEPCHANGE
 .text          0x0000acfc      0x7de C:\Users\USER\Desktop\com\í êMån\20131207\20120510\Debug\iic0.o
                0x0000acfc                IIC0_EEPWAIT
                0x0000b100                IIC0_EEPSTOP
                0x0000b19a                IIC0_EEPREAD
                0x0000b2be                IIC0_EEPWRITE
                0x0000b3be                IIC0_EEPRESET
                0x0000b480                IIC0_EEPINIT
                0x0000b4a2                IIC0_EEPCHANGE
 .text          0x0000b4da        0xc C:\Users\USER\Desktop\com\í êMån\20131207\20120510\Debug\hwinit.o
                0x0000b4da                hw_initialise
 .text          0x0000b4e6      0x452 C:\Users\USER\Desktop\com\í êMån\20131207\20120510\Debug\global.o
                0x0000b4e6                InitStatus
                0x0000b78e                InitRoutine
                0x0000b816                CheckFlags
                0x0000b8a8                ClearFlags
                0x0000b8f0                SetFlags
 .text          0x0000b938      0xc4c C:\Users\USER\Desktop\com\í êMån\20131207\20120510\Debug\fm_tx.o
                0x0000b938                init_modem
                0x0000b998                init_fm
                0x0000ba1c                delay_modem
                0x0000ba38                send_bit
                0x0000bace                crcbit
                0x0000bba8                send_byte
                0x0000bc5a                send_packet
                0x0000bd10                AX_protocol
                0x0000c094                Ax_Send
                0x0000c18c                TX
                0x0000c382                on_off_ms
                0x0000c412                on_off_sec
                0x0000c4f4                on_off_us
 .text          0x0000c584       0x30 C:\Users\USER\Desktop\com\í êMån\20131207\20120510\Debug\fm_ptt.o
                0x0000c584                fmptt_on
                0x0000c59c                fmptt_off
 .text          0x0000c5b4      0x2e4 C:\Users\USER\Desktop\com\í êMån\20131207\20120510\Debug\fm_pllcontrol.o
                0x0000c5b4                out_bit_fm
                0x0000c612                strobe_fm
                0x0000c646                out_bits_fm
                0x0000c6a2                set_reference_divider_fm
                0x0000c6d8                set_option_register_fm
                0x0000c756                set_programmable_divider_fm
                0x0000c7c2                pll_init_fm
                0x0000c834                set_pll_fm
 .text          0x0000c898     0x28a2 C:\Users\USER\Desktop\com\í êMån\20131207\20120510\Debug\debug.o
                0x0000c898                DebugMultiplexer
                0x0000ca06                DebugPut_Status
                0x0000ceae                DebugEEPROM
                0x0000d35c                DebugPut_Rough
                0x0000d68e                DebugPut_Detail
                0x0000d9c0                DebugPut_API
                0x0000dcbe                DebugPut_Initial
                0x0000de4a                DebugPut_SharedROM
                0x0000e1f0                Debug_SharedROM
                0x0000e430                DebugWrite_SharedROM
                0x0000ec70                DisplayRoutine
                0x0000ee9a                SetRoutine
                0x0000f0b4                Check_PowerData
 .text          0x0000f13a     0x15be C:\Users\USER\Desktop\com\í êMån\20131207\20120510\Debug\command.o
                0x0000f13a                GetCommandID
                0x0000fa60                GetMissionCommandID
                0x0000fb20                RegistCommand
                0x0000ff1e                RegistMissionCommand
                0x00010090                ExecuteCommand
 .text          0x000106f8       0x5e C:\Users\USER\Desktop\com\í êMån\20131207\20120510\Debug\comm_buffer.o
                0x000106f8                comm_buffer_init
 .text          0x00010756      0x7aa C:\Users\USER\Desktop\com\í êMån\20131207\20120510\Debug\adconv.o
                0x00010756                adconv_init
                0x00010790                ami_switch
                0x00010808                mpx_switch
                0x000108e8                get_sensor
                0x00010bc0                check_overAmpare
                0x00010caa                INT_IMIB2
                0x00010d44                insertSpace
                0x00010d8a                disp_AD
 .text          0x00010f00      0x4b4 C:\Users\USER\Desktop\com\í êMån\20131207\20120510\Debug\20120510.o
                0x00010f00                main
 .text          0x000113b4       0x8c c:\program files\renesas\hew\tools\kpit\gnuh8-elf\v12.01\h8300-elf\lib\gcc\h8300-elf\4.6-GNUH8_v12.01\h8300h\libgcc.a(_divsi3.o)
                0x000113d6                __modsi3
                0x000113e2                __umodsi3
                0x000113e8                __divsi3
                0x000113fe                __udivsi3
 .text          0x00011440       0x18 c:\program files\renesas\hew\tools\kpit\gnuh8-elf\v12.01\h8300-elf\lib\gcc\h8300-elf\4.6-GNUH8_v12.01\h8300h\libgcc.a(_mulsi3.o)
                0x00011440                __mulsi3
 .text          0x00011458        0x0 C:\Users\USER\Desktop\com\í êMån\20131207\20120510\Debug\lib20120510.a(exit.o)
 .text          0x00011458        0x0 C:\Users\USER\Desktop\com\í êMån\20131207\20120510\Debug\lib20120510.a(newfree.o)
 .text          0x00011458        0x0 C:\Users\USER\Desktop\com\í êMån\20131207\20120510\Debug\lib20120510.a(newheap.o)
 .text          0x00011458        0x0 C:\Users\USER\Desktop\com\í êMån\20131207\20120510\Debug\lib20120510.a(newmalloc.o)
 .text          0x00011458       0x10 C:\Users\USER\Desktop\com\í êMån\20131207\20120510\Debug\lib20120510.a(_exit.o)
                0x00011458                _exit
 *(.text.*)
 .text.exit     0x00011468       0x10 C:\Users\USER\Desktop\com\í êMån\20131207\20120510\Debug\lib20120510.a(exit.o)
                0x00011468                exit
 .text.free     0x00011478       0xd4 C:\Users\USER\Desktop\com\í êMån\20131207\20120510\Debug\lib20120510.a(newfree.o)
                0x00011478                free
 .text._top_of_heap
                0x0001154c        0xe C:\Users\USER\Desktop\com\í êMån\20131207\20120510\Debug\lib20120510.a(newheap.o)
                0x0001154c                _top_of_heap
 .text._make_new_mem_hole
                0x0001155a       0x2e C:\Users\USER\Desktop\com\í êMån\20131207\20120510\Debug\lib20120510.a(newmalloc.o)
                0x0001155a                _make_new_mem_hole
 .text.malloc   0x00011588       0xb8 C:\Users\USER\Desktop\com\í êMån\20131207\20120510\Debug\lib20120510.a(newmalloc.o)
                0x00011588                malloc
                0x00011640                etext = .

.init
 *(.init)

.fini
 *(.fini)

.got
 *(.got)
 *(.got.plt)

.rodata         0x00011640      0xdd8
 *(.rodata)
 .rodata        0x00011640      0x10c C:\Users\USER\Desktop\com\í êMån\20131207\20120510\Debug\teleme.o
 .rodata        0x0001174c       0x31 C:\Users\USER\Desktop\com\í êMån\20131207\20120510\Debug\sci1.o
 .rodata        0x0001177d       0xa0 C:\Users\USER\Desktop\com\í êMån\20131207\20120510\Debug\rx_protcol_inv.o
 .rodata        0x0001181d       0x23 C:\Users\USER\Desktop\com\í êMån\20131207\20120510\Debug\rx.o
 .rodata        0x00011840       0x34 C:\Users\USER\Desktop\com\í êMån\20131207\20120510\Debug\pwr.o
 .rodata        0x00011874       0x30 C:\Users\USER\Desktop\com\í êMån\20131207\20120510\Debug\put_status.o
 .rodata        0x000118a4      0x315 C:\Users\USER\Desktop\com\í êMån\20131207\20120510\Debug\mission.o
 .rodata        0x00011bb9      0x136 C:\Users\USER\Desktop\com\í êMån\20131207\20120510\Debug\message.o
 .rodata        0x00011cef       0xb8 C:\Users\USER\Desktop\com\í êMån\20131207\20120510\Debug\fm_tx.o
 *fill*         0x00011da7        0x1 00
 .rodata        0x00011da8      0x354 C:\Users\USER\Desktop\com\í êMån\20131207\20120510\Debug\debug.o
 .rodata        0x000120fc      0x180 C:\Users\USER\Desktop\com\í êMån\20131207\20120510\Debug\command.o
 .rodata        0x0001227c       0x6c C:\Users\USER\Desktop\com\í êMån\20131207\20120510\Debug\adconv.o
 .rodata        0x000122e8      0x130 C:\Users\USER\Desktop\com\í êMån\20131207\20120510\Debug\20120510.o
 *(.rodata.*)
                0x00012418                _erodata = .

.eh_frame_hdr
 *(.eh_frame_hdr)

.eh_frame
 *(.eh_frame)

.jcr
 *(.jcr)

.tors           0x00012418        0x0
                0x00012418                __CTOR_LIST__ = .
                0x00012418                ___ctors = .
 *(.ctors)
                0x00012418                ___ctors_end = .
                0x00012418                __CTOR_END__ = .
                0x00012418                __DTOR_LIST__ = .
                0x00012418                ___dtors = .
 *(.dtors)
                0x00012418                ___dtors_end = .
                0x00012418                __DTOR_END__ = .
                0x00012418                _mdata = .

.data           0x00ffbf20        0x0 load address 0x00012418
                0x00ffbf20                _data = .
 *(.data)
 .data          0x00ffbf20        0x0 C:\Users\USER\Desktop\com\í êMån\20131207\20120510\Debug\vects.o
 .data          0x00ffbf20        0x0 C:\Users\USER\Desktop\com\í êMån\20131207\20120510\Debug\timer.o
 .data          0x00ffbf20        0x0 C:\Users\USER\Desktop\com\í êMån\20131207\20120510\Debug\teleme.o
 .data          0x00ffbf20        0x0 C:\Users\USER\Desktop\com\í êMån\20131207\20120510\Debug\start.o
 .data          0x00ffbf20        0x0 C:\Users\USER\Desktop\com\í êMån\20131207\20120510\Debug\sci_util.o
 .data          0x00ffbf20        0x0 C:\Users\USER\Desktop\com\í êMån\20131207\20120510\Debug\sci2.o
 .data          0x00ffbf20        0x0 C:\Users\USER\Desktop\com\í êMån\20131207\20120510\Debug\sci1.o
 .data          0x00ffbf20        0x0 C:\Users\USER\Desktop\com\í êMån\20131207\20120510\Debug\sci0.o
 .data          0x00ffbf20        0x0 C:\Users\USER\Desktop\com\í êMån\20131207\20120510\Debug\rx_protcol_inv.o
 .data          0x00ffbf20        0x0 C:\Users\USER\Desktop\com\í êMån\20131207\20120510\Debug\rx_pll_inv.o
 .data          0x00ffbf20        0x0 C:\Users\USER\Desktop\com\í êMån\20131207\20120510\Debug\rx.o
 .data          0x00ffbf20        0x0 C:\Users\USER\Desktop\com\í êMån\20131207\20120510\Debug\pwr.o
 .data          0x00ffbf20        0x0 C:\Users\USER\Desktop\com\í êMån\20131207\20120510\Debug\put_status.o
 .data          0x00ffbf20        0x0 C:\Users\USER\Desktop\com\í êMån\20131207\20120510\Debug\mission.o
 .data          0x00ffbf20        0x0 C:\Users\USER\Desktop\com\í êMån\20131207\20120510\Debug\message.o
 .data          0x00ffbf20        0x0 C:\Users\USER\Desktop\com\í êMån\20131207\20120510\Debug\itu1.o
 .data          0x00ffbf20        0x0 C:\Users\USER\Desktop\com\í êMån\20131207\20120510\Debug\itu0.o
 .data          0x00ffbf20        0x0 C:\Users\USER\Desktop\com\í êMån\20131207\20120510\Debug\inthandler.o
 .data          0x00ffbf20        0x0 C:\Users\USER\Desktop\com\í êMån\20131207\20120510\Debug\init.o
 .data          0x00ffbf20        0x0 C:\Users\USER\Desktop\com\í êMån\20131207\20120510\Debug\iic2.o
 .data          0x00ffbf20        0x0 C:\Users\USER\Desktop\com\í êMån\20131207\20120510\Debug\iic1.o
 .data          0x00ffbf20        0x0 C:\Users\USER\Desktop\com\í êMån\20131207\20120510\Debug\iic0.o
 .data          0x00ffbf20        0x0 C:\Users\USER\Desktop\com\í êMån\20131207\20120510\Debug\hwinit.o
 .data          0x00ffbf20        0x0 C:\Users\USER\Desktop\com\í êMån\20131207\20120510\Debug\global.o
 .data          0x00ffbf20        0x0 C:\Users\USER\Desktop\com\í êMån\20131207\20120510\Debug\fm_tx.o
 .data          0x00ffbf20        0x0 C:\Users\USER\Desktop\com\í êMån\20131207\20120510\Debug\fm_ptt.o
 .data          0x00ffbf20        0x0 C:\Users\USER\Desktop\com\í êMån\20131207\20120510\Debug\fm_pllcontrol.o
 .data          0x00ffbf20        0x0 C:\Users\USER\Desktop\com\í êMån\20131207\20120510\Debug\debug.o
 .data          0x00ffbf20        0x0 C:\Users\USER\Desktop\com\í êMån\20131207\20120510\Debug\command.o
 .data          0x00ffbf20        0x0 C:\Users\USER\Desktop\com\í êMån\20131207\20120510\Debug\comm_buffer.o
 .data          0x00ffbf20        0x0 C:\Users\USER\Desktop\com\í êMån\20131207\20120510\Debug\adconv.o
 .data          0x00ffbf20        0x0 C:\Users\USER\Desktop\com\í êMån\20131207\20120510\Debug\20120510.o
 .data          0x00ffbf20        0x0 c:\program files\renesas\hew\tools\kpit\gnuh8-elf\v12.01\h8300-elf\lib\gcc\h8300-elf\4.6-GNUH8_v12.01\h8300h\libgcc.a(_divsi3.o)
 .data          0x00ffbf20        0x0 c:\program files\renesas\hew\tools\kpit\gnuh8-elf\v12.01\h8300-elf\lib\gcc\h8300-elf\4.6-GNUH8_v12.01\h8300h\libgcc.a(_mulsi3.o)
 .data          0x00ffbf20        0x0 C:\Users\USER\Desktop\com\í êMån\20131207\20120510\Debug\lib20120510.a(exit.o)
 .data          0x00ffbf20        0x0 C:\Users\USER\Desktop\com\í êMån\20131207\20120510\Debug\lib20120510.a(newfree.o)
 .data          0x00ffbf20        0x0 C:\Users\USER\Desktop\com\í êMån\20131207\20120510\Debug\lib20120510.a(newheap.o)
 .data          0x00ffbf20        0x0 C:\Users\USER\Desktop\com\í êMån\20131207\20120510\Debug\lib20120510.a(newmalloc.o)
 .data          0x00ffbf20        0x0 C:\Users\USER\Desktop\com\í êMån\20131207\20120510\Debug\lib20120510.a(_exit.o)
 *(.data.*)
                0x00ffbf20                _edata = .

.gcc_exc
 *(.gcc_exc)

.bss            0x00ffbf20     0x267c load address 0x00012418
                0x00ffbf20                _bss = .
 *(.bss)
 .bss           0x00ffbf20        0x0 C:\Users\USER\Desktop\com\í êMån\20131207\20120510\Debug\vects.o
 .bss           0x00ffbf20        0x2 C:\Users\USER\Desktop\com\í êMån\20131207\20120510\Debug\timer.o
                0x00ffbf20                timer_flag
 *fill*         0x00ffbf22        0x2 00
 .bss           0x00ffbf24      0x1b4 C:\Users\USER\Desktop\com\í êMån\20131207\20120510\Debug\teleme.o
 .bss           0x00ffc0d8        0x0 C:\Users\USER\Desktop\com\í êMån\20131207\20120510\Debug\start.o
 .bss           0x00ffc0d8        0x0 C:\Users\USER\Desktop\com\í êMån\20131207\20120510\Debug\sci_util.o
 .bss           0x00ffc0d8      0x20c C:\Users\USER\Desktop\com\í êMån\20131207\20120510\Debug\sci2.o
 .bss           0x00ffc2e4      0x20c C:\Users\USER\Desktop\com\í êMån\20131207\20120510\Debug\sci1.o
 .bss           0x00ffc4f0      0x20c C:\Users\USER\Desktop\com\í êMån\20131207\20120510\Debug\sci0.o
 .bss           0x00ffc6fc       0x10 C:\Users\USER\Desktop\com\í êMån\20131207\20120510\Debug\rx_protcol_inv.o
                0x00ffc6fc                shiftbuff
                0x00ffc6fe                bit
                0x00ffc700                fcs_error
 .bss           0x00ffc70c        0x8 C:\Users\USER\Desktop\com\í êMån\20131207\20120510\Debug\rx_pll_inv.o
 .bss           0x00ffc714        0x8 C:\Users\USER\Desktop\com\í êMån\20131207\20120510\Debug\rx.o
 .bss           0x00ffc71c        0x0 C:\Users\USER\Desktop\com\í êMån\20131207\20120510\Debug\pwr.o
 .bss           0x00ffc71c      0x1a0 C:\Users\USER\Desktop\com\í êMån\20131207\20120510\Debug\put_status.o
 .bss           0x00ffc8bc        0x4 C:\Users\USER\Desktop\com\í êMån\20131207\20120510\Debug\mission.o
 .bss           0x00ffc8c0      0xa48 C:\Users\USER\Desktop\com\í êMån\20131207\20120510\Debug\message.o
 .bss           0x00ffd308        0x8 C:\Users\USER\Desktop\com\í êMån\20131207\20120510\Debug\itu1.o
 .bss           0x00ffd310        0x0 C:\Users\USER\Desktop\com\í êMån\20131207\20120510\Debug\itu0.o
 .bss           0x00ffd310        0x0 C:\Users\USER\Desktop\com\í êMån\20131207\20120510\Debug\inthandler.o
 .bss           0x00ffd310        0x0 C:\Users\USER\Desktop\com\í êMån\20131207\20120510\Debug\init.o
 .bss           0x00ffd310        0x0 C:\Users\USER\Desktop\com\í êMån\20131207\20120510\Debug\iic2.o
 .bss           0x00ffd310        0x0 C:\Users\USER\Desktop\com\í êMån\20131207\20120510\Debug\iic1.o
 .bss           0x00ffd310        0x0 C:\Users\USER\Desktop\com\í êMån\20131207\20120510\Debug\iic0.o
 .bss           0x00ffd310        0x0 C:\Users\USER\Desktop\com\í êMån\20131207\20120510\Debug\hwinit.o
 .bss           0x00ffd310        0x0 C:\Users\USER\Desktop\com\í êMån\20131207\20120510\Debug\global.o
 .bss           0x00ffd310        0x0 C:\Users\USER\Desktop\com\í êMån\20131207\20120510\Debug\fm_tx.o
 .bss           0x00ffd310        0x0 C:\Users\USER\Desktop\com\í êMån\20131207\20120510\Debug\fm_ptt.o
 .bss           0x00ffd310        0x0 C:\Users\USER\Desktop\com\í êMån\20131207\20120510\Debug\fm_pllcontrol.o
 .bss           0x00ffd310      0x2e0 C:\Users\USER\Desktop\com\í êMån\20131207\20120510\Debug\debug.o
 .bss           0x00ffd5f0        0x6 C:\Users\USER\Desktop\com\í êMån\20131207\20120510\Debug\command.o
 *fill*         0x00ffd5f6        0x2 00
 .bss           0x00ffd5f8        0x8 C:\Users\USER\Desktop\com\í êMån\20131207\20120510\Debug\comm_buffer.o
 .bss           0x00ffd600        0x8 C:\Users\USER\Desktop\com\í êMån\20131207\20120510\Debug\adconv.o
 .bss           0x00ffd608        0x8 C:\Users\USER\Desktop\com\í êMån\20131207\20120510\Debug\20120510.o
 .bss           0x00ffd610        0x0 c:\program files\renesas\hew\tools\kpit\gnuh8-elf\v12.01\h8300-elf\lib\gcc\h8300-elf\4.6-GNUH8_v12.01\h8300h\libgcc.a(_divsi3.o)
 .bss           0x00ffd610        0x0 c:\program files\renesas\hew\tools\kpit\gnuh8-elf\v12.01\h8300-elf\lib\gcc\h8300-elf\4.6-GNUH8_v12.01\h8300h\libgcc.a(_mulsi3.o)
 .bss           0x00ffd610        0x0 C:\Users\USER\Desktop\com\í êMån\20131207\20120510\Debug\lib20120510.a(exit.o)
 .bss           0x00ffd610        0x0 C:\Users\USER\Desktop\com\í êMån\20131207\20120510\Debug\lib20120510.a(newfree.o)
 .bss           0x00ffd610        0x0 C:\Users\USER\Desktop\com\í êMån\20131207\20120510\Debug\lib20120510.a(newheap.o)
 .bss           0x00ffd610        0x0 C:\Users\USER\Desktop\com\í êMån\20131207\20120510\Debug\lib20120510.a(newmalloc.o)
 .bss           0x00ffd610        0x0 C:\Users\USER\Desktop\com\í êMån\20131207\20120510\Debug\lib20120510.a(_exit.o)
 *(.bss.*)
 .bss._heap_of_memory
                0x00ffd610        0x4 C:\Users\USER\Desktop\com\í êMån\20131207\20120510\Debug\lib20120510.a(newheap.o)
                0x00ffd610                _heap_of_memory
 .bss._last_heap_object
                0x00ffd614        0x4 C:\Users\USER\Desktop\com\í êMån\20131207\20120510\Debug\lib20120510.a(newheap.o)
                0x00ffd614                _last_heap_object
 *(COMMON)
 COMMON         0x00ffd618        0x2 C:\Users\USER\Desktop\com\í êMån\20131207\20120510\Debug\timer.o
                0x00ffd618                time
 *fill*         0x00ffd61a        0x2 00
 COMMON         0x00ffd61c      0x1ac C:\Users\USER\Desktop\com\í êMån\20131207\20120510\Debug\teleme.o
                0x00ffd61c                ena_overa
                0x00ffd61f                flag_dispAD
                0x00ffd622                flag_overa
                0x00ffd625                flag_dteleme
                0x00ffd628                ena_rteleme
                0x00ffd62b                ena_ateleme
                0x00ffd62e                flag_ad
                0x00ffd634                my_wdt
                0x00ffd638                flag_iteleme
                0x00ffd63b                ena_iteleme
                0x00ffd63e                ena_mywdt
                0x00ffd644                itu1_cnt
                0x00ffd648                ena_dteleme
                0x00ffd64b                flag_ateleme
                0x00ffd64e                ena_ad
                0x00ffd651                flag_oteleme
                0x00ffd654                flag_rteleme
                0x00ffd657                ena_dispAD
                0x00ffd65a                mpx
                0x00ffd67a                status
                0x00ffd6f9                ena_oteleme
                0x00ffd6fc                message_global
 COMMON         0x00ffd7c8       0x11 C:\Users\USER\Desktop\com\í êMån\20131207\20120510\Debug\rx_protcol_inv.o
                0x00ffd7c8                i
                0x00ffd7ca                fcslo
                0x00ffd7cb                flag_rx
                0x00ffd7d0                uplink_rx_buff
                0x00ffd7d4                kbit
                0x00ffd7d6                info_length
                0x00ffd7d8                fcshi
 *fill*         0x00ffd7d9        0x3 00
 COMMON         0x00ffd7dc      0xc1e C:\Users\USER\Desktop\com\í êMån\20131207\20120510\Debug\rx.o
                0x00ffd7dc                flag_send_fm
                0x00ffd7de                DT_time
                0x00ffd7e0                flag_tx
                0x00ffd7e3                FM_buffer_length
                0x00ffd7f0                FmPreamble
                0x00ffd7f4                stuff
                0x00ffd7f5                fcsflag_send_fm
                0x00ffd7f6                FM_sender_num
                0x00ffd7f7                FM_buffer_num
                0x00ffd7f8                FM_buffer
                0x00ffe3f8                DT_mode
                0x00ffe3f9                FM_mode
 COMMON         0x00ffe3fa        0xc C:\Users\USER\Desktop\com\í êMån\20131207\20120510\Debug\pwr.o
                0x00ffe3fa                ena_alive
                0x00ffe3fd                flag_pwrt
                0x00ffe400                ena_pwrt
                0x00ffe403                flag_alive
 *fill*         0x00ffe406        0x2 00
 COMMON         0x00ffe408       0x22 C:\Users\USER\Desktop\com\í êMån\20131207\20120510\Debug\mission.o
                0x00ffe408                flag_tof
                0x00ffe40c                sms_time
                0x00ffe410                flag_cpr
                0x00ffe414                smr_time
                0x00ffe418                flag_ton
                0x00ffe419                flag_smr
                0x00ffe41c                ena_misst
                0x00ffe420                mission_cnt
                0x00ffe424                flag_sms
                0x00ffe427                flag_misst
 COMMON         0x00ffe42a        0x6 C:\Users\USER\Desktop\com\í êMån\20131207\20120510\Debug\message.o
                0x00ffe42a                flag_exe
                0x00ffe42d                flag_scirx
 COMMON         0x00ffe430        0x1 C:\Users\USER\Desktop\com\í êMån\20131207\20120510\Debug\iic2.o
                0x00ffe430                P2_DDR
 *fill*         0x00ffe431        0x3 00
 COMMON         0x00ffe434      0x168 C:\Users\USER\Desktop\com\í êMån\20131207\20120510\Debug\command.o
                0x00ffe434                command_H
                0x00ffe4ac                command_M
                0x00ffe524                command_L
                0x00ffe59c                _ebss = .
                0x00ffe59c                _end = .

.stack          0x00ffff00        0x0
                0x00ffff00                _stack = .
LOAD C:\Users\USER\Desktop\com\í êMån\20131207\20120510\Debug\vects.o
LOAD C:\Users\USER\Desktop\com\í êMån\20131207\20120510\Debug\timer.o
LOAD C:\Users\USER\Desktop\com\í êMån\20131207\20120510\Debug\teleme.o
LOAD C:\Users\USER\Desktop\com\í êMån\20131207\20120510\Debug\start.o
LOAD C:\Users\USER\Desktop\com\í êMån\20131207\20120510\Debug\sci_util.o
LOAD C:\Users\USER\Desktop\com\í êMån\20131207\20120510\Debug\sci2.o
LOAD C:\Users\USER\Desktop\com\í êMån\20131207\20120510\Debug\sci1.o
LOAD C:\Users\USER\Desktop\com\í êMån\20131207\20120510\Debug\sci0.o
LOAD C:\Users\USER\Desktop\com\í êMån\20131207\20120510\Debug\rx_protcol_inv.o
LOAD C:\Users\USER\Desktop\com\í êMån\20131207\20120510\Debug\rx_pll_inv.o
LOAD C:\Users\USER\Desktop\com\í êMån\20131207\20120510\Debug\rx.o
LOAD C:\Users\USER\Desktop\com\í êMån\20131207\20120510\Debug\pwr.o
LOAD C:\Users\USER\Desktop\com\í êMån\20131207\20120510\Debug\put_status.o
LOAD C:\Users\USER\Desktop\com\í êMån\20131207\20120510\Debug\mission.o
LOAD C:\Users\USER\Desktop\com\í êMån\20131207\20120510\Debug\message.o
LOAD C:\Users\USER\Desktop\com\í êMån\20131207\20120510\Debug\itu1.o
LOAD C:\Users\USER\Desktop\com\í êMån\20131207\20120510\Debug\itu0.o
LOAD C:\Users\USER\Desktop\com\í êMån\20131207\20120510\Debug\inthandler.o
LOAD C:\Users\USER\Desktop\com\í êMån\20131207\20120510\Debug\init.o
LOAD C:\Users\USER\Desktop\com\í êMån\20131207\20120510\Debug\iic2.o
LOAD C:\Users\USER\Desktop\com\í êMån\20131207\20120510\Debug\iic1.o
LOAD C:\Users\USER\Desktop\com\í êMån\20131207\20120510\Debug\iic0.o
LOAD C:\Users\USER\Desktop\com\í êMån\20131207\20120510\Debug\hwinit.o
LOAD C:\Users\USER\Desktop\com\í êMån\20131207\20120510\Debug\global.o
LOAD C:\Users\USER\Desktop\com\í êMån\20131207\20120510\Debug\fm_tx.o
LOAD C:\Users\USER\Desktop\com\í êMån\20131207\20120510\Debug\fm_ptt.o
LOAD C:\Users\USER\Desktop\com\í êMån\20131207\20120510\Debug\fm_pllcontrol.o
LOAD C:\Users\USER\Desktop\com\í êMån\20131207\20120510\Debug\debug.o
LOAD C:\Users\USER\Desktop\com\í êMån\20131207\20120510\Debug\command.o
LOAD C:\Users\USER\Desktop\com\í êMån\20131207\20120510\Debug\comm_buffer.o
LOAD C:\Users\USER\Desktop\com\í êMån\20131207\20120510\Debug\adconv.o
LOAD C:\Users\USER\Desktop\com\í êMån\20131207\20120510\Debug\20120510.o
START GROUP
LOAD c:\program files\renesas\hew\tools\kpit\gnuh8-elf\v12.01\h8300-elf\lib\gcc\h8300-elf\4.6-GNUH8_v12.01\h8300h\libgcc.a
LOAD C:\Users\USER\Desktop\com\í êMån\20131207\20120510\Debug\lib20120510.a
END GROUP
OUTPUT(C:\Users\USER\Desktop\com\í êMån\20131207\20120510\Debug\20131207.x elf32-h8300)

.debug_info     0x00000000     0xdde9
 .debug_info    0x00000000       0x64 C:\Users\USER\Desktop\com\í êMån\20131207\20120510\Debug\vects.o
 .debug_info    0x00000064      0x667 C:\Users\USER\Desktop\com\í êMån\20131207\20120510\Debug\timer.o
 .debug_info    0x000006cb      0xad4 C:\Users\USER\Desktop\com\í êMån\20131207\20120510\Debug\teleme.o
 .debug_info    0x0000119f       0xa9 C:\Users\USER\Desktop\com\í êMån\20131207\20120510\Debug\start.o
 .debug_info    0x00001248      0x158 C:\Users\USER\Desktop\com\í êMån\20131207\20120510\Debug\sci_util.o
 .debug_info    0x000013a0      0x6aa C:\Users\USER\Desktop\com\í êMån\20131207\20120510\Debug\sci2.o
 .debug_info    0x00001a4a      0x6fc C:\Users\USER\Desktop\com\í êMån\20131207\20120510\Debug\sci1.o
 .debug_info    0x00002146      0x6aa C:\Users\USER\Desktop\com\í êMån\20131207\20120510\Debug\sci0.o
 .debug_info    0x000027f0      0xddd C:\Users\USER\Desktop\com\í êMån\20131207\20120510\Debug\rx_protcol_inv.o
 .debug_info    0x000035cd      0x398 C:\Users\USER\Desktop\com\í êMån\20131207\20120510\Debug\rx_pll_inv.o
 .debug_info    0x00003965      0x345 C:\Users\USER\Desktop\com\í êMån\20131207\20120510\Debug\rx.o
 .debug_info    0x00003caa      0x4cf C:\Users\USER\Desktop\com\í êMån\20131207\20120510\Debug\pwr.o
 .debug_info    0x00004179      0xa60 C:\Users\USER\Desktop\com\í êMån\20131207\20120510\Debug\put_status.o
 .debug_info    0x00004bd9      0xdca C:\Users\USER\Desktop\com\í êMån\20131207\20120510\Debug\mission.o
 .debug_info    0x000059a3      0xeb9 C:\Users\USER\Desktop\com\í êMån\20131207\20120510\Debug\message.o
 .debug_info    0x0000685c      0xe6b C:\Users\USER\Desktop\com\í êMån\20131207\20120510\Debug\itu1.o
 .debug_info    0x000076c7      0x818 C:\Users\USER\Desktop\com\í êMån\20131207\20120510\Debug\itu0.o
 .debug_info    0x00007edf      0x298 C:\Users\USER\Desktop\com\í êMån\20131207\20120510\Debug\inthandler.o
 .debug_info    0x00008177      0xa5d C:\Users\USER\Desktop\com\í êMån\20131207\20120510\Debug\init.o
 .debug_info    0x00008bd4      0x410 C:\Users\USER\Desktop\com\í êMån\20131207\20120510\Debug\iic2.o
 .debug_info    0x00008fe4      0x410 C:\Users\USER\Desktop\com\í êMån\20131207\20120510\Debug\iic1.o
 .debug_info    0x000093f4      0x410 C:\Users\USER\Desktop\com\í êMån\20131207\20120510\Debug\iic0.o
 .debug_info    0x00009804       0x53 C:\Users\USER\Desktop\com\í êMån\20131207\20120510\Debug\hwinit.o
 .debug_info    0x00009857      0x76e C:\Users\USER\Desktop\com\í êMån\20131207\20120510\Debug\global.o
 .debug_info    0x00009fc5      0xa4b C:\Users\USER\Desktop\com\í êMån\20131207\20120510\Debug\fm_tx.o
 .debug_info    0x0000aa10      0x114 C:\Users\USER\Desktop\com\í êMån\20131207\20120510\Debug\fm_ptt.o
 .debug_info    0x0000ab24      0x3ba C:\Users\USER\Desktop\com\í êMån\20131207\20120510\Debug\fm_pllcontrol.o
 .debug_info    0x0000aede      0xe7c C:\Users\USER\Desktop\com\í êMån\20131207\20120510\Debug\debug.o
 .debug_info    0x0000bd5a      0x646 C:\Users\USER\Desktop\com\í êMån\20131207\20120510\Debug\command.o
 .debug_info    0x0000c3a0      0x15e C:\Users\USER\Desktop\com\í êMån\20131207\20120510\Debug\comm_buffer.o
 .debug_info    0x0000c4fe      0xd90 C:\Users\USER\Desktop\com\í êMån\20131207\20120510\Debug\adconv.o
 .debug_info    0x0000d28e      0xb5b C:\Users\USER\Desktop\com\í êMån\20131207\20120510\Debug\20120510.o

.debug_abbrev   0x00000000     0x2849
 .debug_abbrev  0x00000000       0x62 C:\Users\USER\Desktop\com\í êMån\20131207\20120510\Debug\vects.o
 .debug_abbrev  0x00000062      0x140 C:\Users\USER\Desktop\com\í êMån\20131207\20120510\Debug\timer.o
 .debug_abbrev  0x000001a2      0x196 C:\Users\USER\Desktop\com\í êMån\20131207\20120510\Debug\teleme.o
 .debug_abbrev  0x00000338       0x14 C:\Users\USER\Desktop\com\í êMån\20131207\20120510\Debug\start.o
 .debug_abbrev  0x0000034c       0xb1 C:\Users\USER\Desktop\com\í êMån\20131207\20120510\Debug\sci_util.o
 .debug_abbrev  0x000003fd      0x1be C:\Users\USER\Desktop\com\í êMån\20131207\20120510\Debug\sci2.o
 .debug_abbrev  0x000005bb      0x1be C:\Users\USER\Desktop\com\í êMån\20131207\20120510\Debug\sci1.o
 .debug_abbrev  0x00000779      0x1be C:\Users\USER\Desktop\com\í êMån\20131207\20120510\Debug\sci0.o
 .debug_abbrev  0x00000937      0x287 C:\Users\USER\Desktop\com\í êMån\20131207\20120510\Debug\rx_protcol_inv.o
 .debug_abbrev  0x00000bbe      0x10e C:\Users\USER\Desktop\com\í êMån\20131207\20120510\Debug\rx_pll_inv.o
 .debug_abbrev  0x00000ccc       0xfd C:\Users\USER\Desktop\com\í êMån\20131207\20120510\Debug\rx.o
 .debug_abbrev  0x00000dc9       0xde C:\Users\USER\Desktop\com\í êMån\20131207\20120510\Debug\pwr.o
 .debug_abbrev  0x00000ea7      0x166 C:\Users\USER\Desktop\com\í êMån\20131207\20120510\Debug\put_status.o
 .debug_abbrev  0x0000100d      0x252 C:\Users\USER\Desktop\com\í êMån\20131207\20120510\Debug\mission.o
 .debug_abbrev  0x0000125f      0x1b6 C:\Users\USER\Desktop\com\í êMån\20131207\20120510\Debug\message.o
 .debug_abbrev  0x00001415      0x170 C:\Users\USER\Desktop\com\í êMån\20131207\20120510\Debug\itu1.o
 .debug_abbrev  0x00001585      0x13e C:\Users\USER\Desktop\com\í êMån\20131207\20120510\Debug\itu0.o
 .debug_abbrev  0x000016c3       0x27 C:\Users\USER\Desktop\com\í êMån\20131207\20120510\Debug\inthandler.o
 .debug_abbrev  0x000016ea      0x121 C:\Users\USER\Desktop\com\í êMån\20131207\20120510\Debug\init.o
 .debug_abbrev  0x0000180b      0x147 C:\Users\USER\Desktop\com\í êMån\20131207\20120510\Debug\iic2.o
 .debug_abbrev  0x00001952      0x147 C:\Users\USER\Desktop\com\í êMån\20131207\20120510\Debug\iic1.o
 .debug_abbrev  0x00001a99      0x147 C:\Users\USER\Desktop\com\í êMån\20131207\20120510\Debug\iic0.o
 .debug_abbrev  0x00001be0       0x32 C:\Users\USER\Desktop\com\í êMån\20131207\20120510\Debug\hwinit.o
 .debug_abbrev  0x00001c12      0x104 C:\Users\USER\Desktop\com\í êMån\20131207\20120510\Debug\global.o
 .debug_abbrev  0x00001d16      0x22b C:\Users\USER\Desktop\com\í êMån\20131207\20120510\Debug\fm_tx.o
 .debug_abbrev  0x00001f41       0x7d C:\Users\USER\Desktop\com\í êMån\20131207\20120510\Debug\fm_ptt.o
 .debug_abbrev  0x00001fbe       0xe4 C:\Users\USER\Desktop\com\í êMån\20131207\20120510\Debug\fm_pllcontrol.o
 .debug_abbrev  0x000020a2      0x1d6 C:\Users\USER\Desktop\com\í êMån\20131207\20120510\Debug\debug.o
 .debug_abbrev  0x00002278      0x198 C:\Users\USER\Desktop\com\í êMån\20131207\20120510\Debug\command.o
 .debug_abbrev  0x00002410       0x94 C:\Users\USER\Desktop\com\í êMån\20131207\20120510\Debug\comm_buffer.o
 .debug_abbrev  0x000024a4      0x215 C:\Users\USER\Desktop\com\í êMån\20131207\20120510\Debug\adconv.o
 .debug_abbrev  0x000026b9      0x190 C:\Users\USER\Desktop\com\í êMån\20131207\20120510\Debug\20120510.o

.debug_line     0x00000000     0xad28
 .debug_line    0x00000000       0x62 C:\Users\USER\Desktop\com\í êMån\20131207\20120510\Debug\vects.o
 .debug_line    0x00000062      0x206 C:\Users\USER\Desktop\com\í êMån\20131207\20120510\Debug\timer.o
 .debug_line    0x00000268     0x12d6 C:\Users\USER\Desktop\com\í êMån\20131207\20120510\Debug\teleme.o
 .debug_line    0x0000153e       0x85 C:\Users\USER\Desktop\com\í êMån\20131207\20120510\Debug\start.o
 .debug_line    0x000015c3      0x14d C:\Users\USER\Desktop\com\í êMån\20131207\20120510\Debug\sci_util.o
 .debug_line    0x00001710      0x4c6 C:\Users\USER\Desktop\com\í êMån\20131207\20120510\Debug\sci2.o
 .debug_line    0x00001bd6      0x5a8 C:\Users\USER\Desktop\com\í êMån\20131207\20120510\Debug\sci1.o
 .debug_line    0x0000217e      0x4c6 C:\Users\USER\Desktop\com\í êMån\20131207\20120510\Debug\sci0.o
 .debug_line    0x00002644      0x74d C:\Users\USER\Desktop\com\í êMån\20131207\20120510\Debug\rx_protcol_inv.o
 .debug_line    0x00002d91      0x270 C:\Users\USER\Desktop\com\í êMån\20131207\20120510\Debug\rx_pll_inv.o
 .debug_line    0x00003001      0x194 C:\Users\USER\Desktop\com\í êMån\20131207\20120510\Debug\rx.o
 .debug_line    0x00003195      0x218 C:\Users\USER\Desktop\com\í êMån\20131207\20120510\Debug\pwr.o
 .debug_line    0x000033ad      0x880 C:\Users\USER\Desktop\com\í êMån\20131207\20120510\Debug\put_status.o
 .debug_line    0x00003c2d      0x9e3 C:\Users\USER\Desktop\com\í êMån\20131207\20120510\Debug\mission.o
 .debug_line    0x00004610     0x1156 C:\Users\USER\Desktop\com\í êMån\20131207\20120510\Debug\message.o
 .debug_line    0x00005766      0x34e C:\Users\USER\Desktop\com\í êMån\20131207\20120510\Debug\itu1.o
 .debug_line    0x00005ab4      0x15d C:\Users\USER\Desktop\com\í êMån\20131207\20120510\Debug\itu0.o
 .debug_line    0x00005c11      0x247 C:\Users\USER\Desktop\com\í êMån\20131207\20120510\Debug\inthandler.o
 .debug_line    0x00005e58      0x2c0 C:\Users\USER\Desktop\com\í êMån\20131207\20120510\Debug\init.o
 .debug_line    0x00006118      0x484 C:\Users\USER\Desktop\com\í êMån\20131207\20120510\Debug\iic2.o
 .debug_line    0x0000659c      0x484 C:\Users\USER\Desktop\com\í êMån\20131207\20120510\Debug\iic1.o
 .debug_line    0x00006a20      0x484 C:\Users\USER\Desktop\com\í êMån\20131207\20120510\Debug\iic0.o
 .debug_line    0x00006ea4       0x73 C:\Users\USER\Desktop\com\í êMån\20131207\20120510\Debug\hwinit.o
 .debug_line    0x00006f17      0x3a7 C:\Users\USER\Desktop\com\í êMån\20131207\20120510\Debug\global.o
 .debug_line    0x000072be      0xa5f C:\Users\USER\Desktop\com\í êMån\20131207\20120510\Debug\fm_tx.o
 .debug_line    0x00007d1d       0xd6 C:\Users\USER\Desktop\com\í êMån\20131207\20120510\Debug\fm_ptt.o
 .debug_line    0x00007df3      0x2a1 C:\Users\USER\Desktop\com\í êMån\20131207\20120510\Debug\fm_pllcontrol.o
 .debug_line    0x00008094     0x174d C:\Users\USER\Desktop\com\í êMån\20131207\20120510\Debug\debug.o
 .debug_line    0x000097e1      0xa4b C:\Users\USER\Desktop\com\í êMån\20131207\20120510\Debug\command.o
 .debug_line    0x0000a22c      0x112 C:\Users\USER\Desktop\com\í êMån\20131207\20120510\Debug\comm_buffer.o
 .debug_line    0x0000a33e      0x50e C:\Users\USER\Desktop\com\í êMån\20131207\20120510\Debug\adconv.o
 .debug_line    0x0000a84c      0x4dc C:\Users\USER\Desktop\com\í êMån\20131207\20120510\Debug\20120510.o

.debug_str      0x00000000     0x1eae
 .debug_str     0x00000000       0x74 C:\Users\USER\Desktop\com\í êMån\20131207\20120510\Debug\vects.o
 .debug_str     0x00000074      0x1ad C:\Users\USER\Desktop\com\í êMån\20131207\20120510\Debug\timer.o
                                0x1ed (size before relaxing)
 .debug_str     0x00000221      0x328 C:\Users\USER\Desktop\com\í êMån\20131207\20120510\Debug\teleme.o
                                0x39d (size before relaxing)
 .debug_str     0x00000549       0x9d C:\Users\USER\Desktop\com\í êMån\20131207\20120510\Debug\sci_util.o
                                 0xf6 (size before relaxing)
 .debug_str     0x000005e6      0x17a C:\Users\USER\Desktop\com\í êMån\20131207\20120510\Debug\sci2.o
                                0x1f2 (size before relaxing)
 .debug_str     0x00000760      0x11e C:\Users\USER\Desktop\com\í êMån\20131207\20120510\Debug\sci1.o
                                0x204 (size before relaxing)
 .debug_str     0x0000087e      0x111 C:\Users\USER\Desktop\com\í êMån\20131207\20120510\Debug\sci0.o
                                0x1f2 (size before relaxing)
 .debug_str     0x0000098f      0x1ae C:\Users\USER\Desktop\com\í êMån\20131207\20120510\Debug\rx_protcol_inv.o
                                0x399 (size before relaxing)
 .debug_str     0x00000b3d      0x12d C:\Users\USER\Desktop\com\í êMån\20131207\20120510\Debug\rx_pll_inv.o
                                0x208 (size before relaxing)
 .debug_str     0x00000c6a       0xc8 C:\Users\USER\Desktop\com\í êMån\20131207\20120510\Debug\rx.o
                                0x19e (size before relaxing)
 .debug_str     0x00000d32       0xcd C:\Users\USER\Desktop\com\í êMån\20131207\20120510\Debug\pwr.o
                                0x23a (size before relaxing)
 .debug_str     0x00000dff      0x133 C:\Users\USER\Desktop\com\í êMån\20131207\20120510\Debug\put_status.o
                                0x24c (size before relaxing)
 .debug_str     0x00000f32      0x1ac C:\Users\USER\Desktop\com\í êMån\20131207\20120510\Debug\mission.o
                                0x500 (size before relaxing)
 .debug_str     0x000010de      0x2af C:\Users\USER\Desktop\com\í êMån\20131207\20120510\Debug\message.o
                                0x52d (size before relaxing)
 .debug_str     0x0000138d       0x4e C:\Users\USER\Desktop\com\í êMån\20131207\20120510\Debug\itu1.o
                                0x4ae (size before relaxing)
 .debug_str     0x000013db       0x58 C:\Users\USER\Desktop\com\í êMån\20131207\20120510\Debug\itu0.o
                                0x270 (size before relaxing)
 .debug_str     0x00001433      0x168 C:\Users\USER\Desktop\com\í êMån\20131207\20120510\Debug\inthandler.o
                                0x17f (size before relaxing)
 .debug_str     0x0000159b       0x6c C:\Users\USER\Desktop\com\í êMån\20131207\20120510\Debug\init.o
                                0x39b (size before relaxing)
 .debug_str     0x00001607       0xe1 C:\Users\USER\Desktop\com\í êMån\20131207\20120510\Debug\iic2.o
                                0x145 (size before relaxing)
 .debug_str     0x000016e8       0x96 C:\Users\USER\Desktop\com\í êMån\20131207\20120510\Debug\iic1.o
                                0x145 (size before relaxing)
 .debug_str     0x0000177e       0x96 C:\Users\USER\Desktop\com\í êMån\20131207\20120510\Debug\iic0.o
                                0x145 (size before relaxing)
 .debug_str     0x00001814       0x4a C:\Users\USER\Desktop\com\í êMån\20131207\20120510\Debug\hwinit.o
                                 0x99 (size before relaxing)
 .debug_str     0x0000185e       0x7b C:\Users\USER\Desktop\com\í êMån\20131207\20120510\Debug\global.o
                                0x2d4 (size before relaxing)
 .debug_str     0x000018d9      0x136 C:\Users\USER\Desktop\com\í êMån\20131207\20120510\Debug\fm_tx.o
                                0x2fc (size before relaxing)
 .debug_str     0x00001a0f       0x3c C:\Users\USER\Desktop\com\í êMån\20131207\20120510\Debug\fm_ptt.o
                                 0xab (size before relaxing)
 .debug_str     0x00001a4b       0xcf C:\Users\USER\Desktop\com\í êMån\20131207\20120510\Debug\fm_pllcontrol.o
                                0x1ec (size before relaxing)
 .debug_str     0x00001b1a      0x139 C:\Users\USER\Desktop\com\í êMån\20131207\20120510\Debug\debug.o
                                0x42c (size before relaxing)
 .debug_str     0x00001c53       0xd7 C:\Users\USER\Desktop\com\í êMån\20131207\20120510\Debug\command.o
                                0x2f9 (size before relaxing)
 .debug_str     0x00001d2a       0x52 C:\Users\USER\Desktop\com\í êMån\20131207\20120510\Debug\comm_buffer.o
                                0x114 (size before relaxing)
 .debug_str     0x00001d7c       0xdc C:\Users\USER\Desktop\com\í êMån\20131207\20120510\Debug\adconv.o
                                0x38f (size before relaxing)
 .debug_str     0x00001e58       0x56 C:\Users\USER\Desktop\com\í êMån\20131207\20120510\Debug\20120510.o
                                0x3f1 (size before relaxing)

.comment        0x00000000       0x38
 .comment       0x00000000       0x1c C:\Users\USER\Desktop\com\í êMån\20131207\20120510\Debug\vects.o
                                 0x1d (size before relaxing)
 .comment       0x00000000       0x1d C:\Users\USER\Desktop\com\í êMån\20131207\20120510\Debug\timer.o
 .comment       0x00000000       0x1d C:\Users\USER\Desktop\com\í êMån\20131207\20120510\Debug\teleme.o
 .comment       0x00000000       0x1d C:\Users\USER\Desktop\com\í êMån\20131207\20120510\Debug\sci_util.o
 .comment       0x00000000       0x1d C:\Users\USER\Desktop\com\í êMån\20131207\20120510\Debug\sci2.o
 .comment       0x00000000       0x1d C:\Users\USER\Desktop\com\í êMån\20131207\20120510\Debug\sci1.o
 .comment       0x00000000       0x1d C:\Users\USER\Desktop\com\í êMån\20131207\20120510\Debug\sci0.o
 .comment       0x00000000       0x1d C:\Users\USER\Desktop\com\í êMån\20131207\20120510\Debug\rx_protcol_inv.o
 .comment       0x00000000       0x1d C:\Users\USER\Desktop\com\í êMån\20131207\20120510\Debug\rx_pll_inv.o
 .comment       0x00000000       0x1d C:\Users\USER\Desktop\com\í êMån\20131207\20120510\Debug\rx.o
 .comment       0x00000000       0x1d C:\Users\USER\Desktop\com\í êMån\20131207\20120510\Debug\pwr.o
 .comment       0x00000000       0x1d C:\Users\USER\Desktop\com\í êMån\20131207\20120510\Debug\put_status.o
 .comment       0x00000000       0x1d C:\Users\USER\Desktop\com\í êMån\20131207\20120510\Debug\mission.o
 .comment       0x00000000       0x1d C:\Users\USER\Desktop\com\í êMån\20131207\20120510\Debug\message.o
 .comment       0x00000000       0x1d C:\Users\USER\Desktop\com\í êMån\20131207\20120510\Debug\itu1.o
 .comment       0x00000000       0x1d C:\Users\USER\Desktop\com\í êMån\20131207\20120510\Debug\itu0.o
 .comment       0x00000000       0x1d C:\Users\USER\Desktop\com\í êMån\20131207\20120510\Debug\inthandler.o
 .comment       0x00000000       0x1d C:\Users\USER\Desktop\com\í êMån\20131207\20120510\Debug\init.o
 .comment       0x00000000       0x1d C:\Users\USER\Desktop\com\í êMån\20131207\20120510\Debug\iic2.o
 .comment       0x00000000       0x1d C:\Users\USER\Desktop\com\í êMån\20131207\20120510\Debug\iic1.o
 .comment       0x00000000       0x1d C:\Users\USER\Desktop\com\í êMån\20131207\20120510\Debug\iic0.o
 .comment       0x00000000       0x1d C:\Users\USER\Desktop\com\í êMån\20131207\20120510\Debug\hwinit.o
 .comment       0x00000000       0x1d C:\Users\USER\Desktop\com\í êMån\20131207\20120510\Debug\global.o
 .comment       0x00000000       0x1d C:\Users\USER\Desktop\com\í êMån\20131207\20120510\Debug\fm_tx.o
 .comment       0x00000000       0x1d C:\Users\USER\Desktop\com\í êMån\20131207\20120510\Debug\fm_ptt.o
 .comment       0x00000000       0x1d C:\Users\USER\Desktop\com\í êMån\20131207\20120510\Debug\fm_pllcontrol.o
 .comment       0x00000000       0x1d C:\Users\USER\Desktop\com\í êMån\20131207\20120510\Debug\debug.o
 .comment       0x00000000       0x1d C:\Users\USER\Desktop\com\í êMån\20131207\20120510\Debug\command.o
 .comment       0x00000000       0x1d C:\Users\USER\Desktop\com\í êMån\20131207\20120510\Debug\comm_buffer.o
 .comment       0x00000000       0x1d C:\Users\USER\Desktop\com\í êMån\20131207\20120510\Debug\adconv.o
 .comment       0x00000000       0x1d C:\Users\USER\Desktop\com\í êMån\20131207\20120510\Debug\20120510.o
 .comment       0x0000001c       0x1c C:\Users\USER\Desktop\com\í êMån\20131207\20120510\Debug\lib20120510.a(exit.o)
                                 0x1d (size before relaxing)
 .comment       0x00000000       0x1d C:\Users\USER\Desktop\com\í êMån\20131207\20120510\Debug\lib20120510.a(newfree.o)
 .comment       0x00000000       0x1d C:\Users\USER\Desktop\com\í êMån\20131207\20120510\Debug\lib20120510.a(newheap.o)
 .comment       0x00000000       0x1d C:\Users\USER\Desktop\com\í êMån\20131207\20120510\Debug\lib20120510.a(newmalloc.o)

.debug_frame    0x00000000     0x2864
 .debug_frame   0x00000000       0x80 C:\Users\USER\Desktop\com\í êMån\20131207\20120510\Debug\timer.o
 .debug_frame   0x00000080      0x2ec C:\Users\USER\Desktop\com\í êMån\20131207\20120510\Debug\teleme.o
 .debug_frame   0x0000036c      0x114 C:\Users\USER\Desktop\com\í êMån\20131207\20120510\Debug\sci_util.o
 .debug_frame   0x00000480      0x210 C:\Users\USER\Desktop\com\í êMån\20131207\20120510\Debug\sci2.o
 .debug_frame   0x00000690      0x234 C:\Users\USER\Desktop\com\í êMån\20131207\20120510\Debug\sci1.o
 .debug_frame   0x000008c4      0x210 C:\Users\USER\Desktop\com\í êMån\20131207\20120510\Debug\sci0.o
 .debug_frame   0x00000ad4      0x164 C:\Users\USER\Desktop\com\í êMån\20131207\20120510\Debug\rx_protcol_inv.o
 .debug_frame   0x00000c38      0x11c C:\Users\USER\Desktop\com\í êMån\20131207\20120510\Debug\rx_pll_inv.o
 .debug_frame   0x00000d54       0x5c C:\Users\USER\Desktop\com\í êMån\20131207\20120510\Debug\rx.o
 .debug_frame   0x00000db0       0xec C:\Users\USER\Desktop\com\í êMån\20131207\20120510\Debug\pwr.o
 .debug_frame   0x00000e9c      0x14c C:\Users\USER\Desktop\com\í êMån\20131207\20120510\Debug\put_status.o
 .debug_frame   0x00000fe8      0x1dc C:\Users\USER\Desktop\com\í êMån\20131207\20120510\Debug\mission.o
 .debug_frame   0x000011c4      0x26c C:\Users\USER\Desktop\com\í êMån\20131207\20120510\Debug\message.o
 .debug_frame   0x00001430       0x6c C:\Users\USER\Desktop\com\í êMån\20131207\20120510\Debug\itu1.o
 .debug_frame   0x0000149c       0x90 C:\Users\USER\Desktop\com\í êMån\20131207\20120510\Debug\itu0.o
 .debug_frame   0x0000152c      0x44c C:\Users\USER\Desktop\com\í êMån\20131207\20120510\Debug\inthandler.o
 .debug_frame   0x00001978       0x8c C:\Users\USER\Desktop\com\í êMån\20131207\20120510\Debug\init.o
 .debug_frame   0x00001a04      0x17c C:\Users\USER\Desktop\com\í êMån\20131207\20120510\Debug\iic2.o
 .debug_frame   0x00001b80      0x17c C:\Users\USER\Desktop\com\í êMån\20131207\20120510\Debug\iic1.o
 .debug_frame   0x00001cfc      0x17c C:\Users\USER\Desktop\com\í êMån\20131207\20120510\Debug\iic0.o
 .debug_frame   0x00001e78       0x38 C:\Users\USER\Desktop\com\í êMån\20131207\20120510\Debug\hwinit.o
 .debug_frame   0x00001eb0       0xc8 C:\Users\USER\Desktop\com\í êMån\20131207\20120510\Debug\global.o
 .debug_frame   0x00001f78      0x1e8 C:\Users\USER\Desktop\com\í êMån\20131207\20120510\Debug\fm_tx.o
 .debug_frame   0x00002160       0x5c C:\Users\USER\Desktop\com\í êMån\20131207\20120510\Debug\fm_ptt.o
 .debug_frame   0x000021bc      0x14c C:\Users\USER\Desktop\com\í êMån\20131207\20120510\Debug\fm_pllcontrol.o
 .debug_frame   0x00002308      0x2e0 C:\Users\USER\Desktop\com\í êMån\20131207\20120510\Debug\debug.o
 .debug_frame   0x000025e8       0xc8 C:\Users\USER\Desktop\com\í êMån\20131207\20120510\Debug\command.o
 .debug_frame   0x000026b0       0x38 C:\Users\USER\Desktop\com\í êMån\20131207\20120510\Debug\comm_buffer.o
 .debug_frame   0x000026e8      0x144 C:\Users\USER\Desktop\com\í êMån\20131207\20120510\Debug\adconv.o
 .debug_frame   0x0000282c       0x38 C:\Users\USER\Desktop\com\í êMån\20131207\20120510\Debug\20120510.o

.debug_loc      0x00000000     0x2a1c
 .debug_loc     0x00000000       0x84 C:\Users\USER\Desktop\com\í êMån\20131207\20120510\Debug\timer.o
 .debug_loc     0x00000084      0x23c C:\Users\USER\Desktop\com\í êMån\20131207\20120510\Debug\teleme.o
 .debug_loc     0x000002c0      0x134 C:\Users\USER\Desktop\com\í êMån\20131207\20120510\Debug\sci_util.o
 .debug_loc     0x000003f4      0x23c C:\Users\USER\Desktop\com\í êMån\20131207\20120510\Debug\sci2.o
 .debug_loc     0x00000630      0x268 C:\Users\USER\Desktop\com\í êMån\20131207\20120510\Debug\sci1.o
 .debug_loc     0x00000898      0x23c C:\Users\USER\Desktop\com\í êMån\20131207\20120510\Debug\sci0.o
 .debug_loc     0x00000ad4      0x18c C:\Users\USER\Desktop\com\í êMån\20131207\20120510\Debug\rx_protcol_inv.o
 .debug_loc     0x00000c60      0x134 C:\Users\USER\Desktop\com\í êMån\20131207\20120510\Debug\rx_pll_inv.o
 .debug_loc     0x00000d94       0x58 C:\Users\USER\Desktop\com\í êMån\20131207\20120510\Debug\rx.o
 .debug_loc     0x00000dec      0x108 C:\Users\USER\Desktop\com\í êMån\20131207\20120510\Debug\pwr.o
 .debug_loc     0x00000ef4      0x108 C:\Users\USER\Desktop\com\í êMån\20131207\20120510\Debug\put_status.o
 .debug_loc     0x00000ffc      0x210 C:\Users\USER\Desktop\com\í êMån\20131207\20120510\Debug\mission.o
 .debug_loc     0x0000120c      0x294 C:\Users\USER\Desktop\com\í êMån\20131207\20120510\Debug\message.o
 .debug_loc     0x000014a0       0x58 C:\Users\USER\Desktop\com\í êMån\20131207\20120510\Debug\itu1.o
 .debug_loc     0x000014f8       0x84 C:\Users\USER\Desktop\com\í êMån\20131207\20120510\Debug\itu0.o
 .debug_loc     0x0000157c      0x528 C:\Users\USER\Desktop\com\í êMån\20131207\20120510\Debug\inthandler.o
 .debug_loc     0x00001aa4       0x84 C:\Users\USER\Desktop\com\í êMån\20131207\20120510\Debug\init.o
 .debug_loc     0x00001b28      0x1b8 C:\Users\USER\Desktop\com\í êMån\20131207\20120510\Debug\iic2.o
 .debug_loc     0x00001ce0      0x1b8 C:\Users\USER\Desktop\com\í êMån\20131207\20120510\Debug\iic1.o
 .debug_loc     0x00001e98      0x1b8 C:\Users\USER\Desktop\com\í êMån\20131207\20120510\Debug\iic0.o
 .debug_loc     0x00002050       0x2c C:\Users\USER\Desktop\com\í êMån\20131207\20120510\Debug\hwinit.o
 .debug_loc     0x0000207c       0xdc C:\Users\USER\Desktop\com\í êMån\20131207\20120510\Debug\global.o
 .debug_loc     0x00002158      0x23c C:\Users\USER\Desktop\com\í êMån\20131207\20120510\Debug\fm_tx.o
 .debug_loc     0x00002394       0x58 C:\Users\USER\Desktop\com\í êMån\20131207\20120510\Debug\fm_ptt.o
 .debug_loc     0x000023ec      0x160 C:\Users\USER\Desktop\com\í êMån\20131207\20120510\Debug\fm_pllcontrol.o
 .debug_loc     0x0000254c      0x23c C:\Users\USER\Desktop\com\í êMån\20131207\20120510\Debug\debug.o
 .debug_loc     0x00002788       0xdc C:\Users\USER\Desktop\com\í êMån\20131207\20120510\Debug\command.o
 .debug_loc     0x00002864       0x2c C:\Users\USER\Desktop\com\í êMån\20131207\20120510\Debug\comm_buffer.o
 .debug_loc     0x00002890      0x160 C:\Users\USER\Desktop\com\í êMån\20131207\20120510\Debug\adconv.o
 .debug_loc     0x000029f0       0x2c C:\Users\USER\Desktop\com\í êMån\20131207\20120510\Debug\20120510.o

.debug_aranges  0x00000000      0x3e0
 .debug_aranges
                0x00000000       0x20 C:\Users\USER\Desktop\com\í êMån\20131207\20120510\Debug\timer.o
 .debug_aranges
                0x00000020       0x20 C:\Users\USER\Desktop\com\í êMån\20131207\20120510\Debug\teleme.o
 .debug_aranges
                0x00000040       0x20 C:\Users\USER\Desktop\com\í êMån\20131207\20120510\Debug\start.o
 .debug_aranges
                0x00000060       0x20 C:\Users\USER\Desktop\com\í êMån\20131207\20120510\Debug\sci_util.o
 .debug_aranges
                0x00000080       0x20 C:\Users\USER\Desktop\com\í êMån\20131207\20120510\Debug\sci2.o
 .debug_aranges
                0x000000a0       0x20 C:\Users\USER\Desktop\com\í êMån\20131207\20120510\Debug\sci1.o
 .debug_aranges
                0x000000c0       0x20 C:\Users\USER\Desktop\com\í êMån\20131207\20120510\Debug\sci0.o
 .debug_aranges
                0x000000e0       0x20 C:\Users\USER\Desktop\com\í êMån\20131207\20120510\Debug\rx_protcol_inv.o
 .debug_aranges
                0x00000100       0x20 C:\Users\USER\Desktop\com\í êMån\20131207\20120510\Debug\rx_pll_inv.o
 .debug_aranges
                0x00000120       0x20 C:\Users\USER\Desktop\com\í êMån\20131207\20120510\Debug\rx.o
 .debug_aranges
                0x00000140       0x20 C:\Users\USER\Desktop\com\í êMån\20131207\20120510\Debug\pwr.o
 .debug_aranges
                0x00000160       0x20 C:\Users\USER\Desktop\com\í êMån\20131207\20120510\Debug\put_status.o
 .debug_aranges
                0x00000180       0x20 C:\Users\USER\Desktop\com\í êMån\20131207\20120510\Debug\mission.o
 .debug_aranges
                0x000001a0       0x20 C:\Users\USER\Desktop\com\í êMån\20131207\20120510\Debug\message.o
 .debug_aranges
                0x000001c0       0x20 C:\Users\USER\Desktop\com\í êMån\20131207\20120510\Debug\itu1.o
 .debug_aranges
                0x000001e0       0x20 C:\Users\USER\Desktop\com\í êMån\20131207\20120510\Debug\itu0.o
 .debug_aranges
                0x00000200       0x20 C:\Users\USER\Desktop\com\í êMån\20131207\20120510\Debug\inthandler.o
 .debug_aranges
                0x00000220       0x20 C:\Users\USER\Desktop\com\í êMån\20131207\20120510\Debug\init.o
 .debug_aranges
                0x00000240       0x20 C:\Users\USER\Desktop\com\í êMån\20131207\20120510\Debug\iic2.o
 .debug_aranges
                0x00000260       0x20 C:\Users\USER\Desktop\com\í êMån\20131207\20120510\Debug\iic1.o
 .debug_aranges
                0x00000280       0x20 C:\Users\USER\Desktop\com\í êMån\20131207\20120510\Debug\iic0.o
 .debug_aranges
                0x000002a0       0x20 C:\Users\USER\Desktop\com\í êMån\20131207\20120510\Debug\hwinit.o
 .debug_aranges
                0x000002c0       0x20 C:\Users\USER\Desktop\com\í êMån\20131207\20120510\Debug\global.o
 .debug_aranges
                0x000002e0       0x20 C:\Users\USER\Desktop\com\í êMån\20131207\20120510\Debug\fm_tx.o
 .debug_aranges
                0x00000300       0x20 C:\Users\USER\Desktop\com\í êMån\20131207\20120510\Debug\fm_ptt.o
 .debug_aranges
                0x00000320       0x20 C:\Users\USER\Desktop\com\í êMån\20131207\20120510\Debug\fm_pllcontrol.o
 .debug_aranges
                0x00000340       0x20 C:\Users\USER\Desktop\com\í êMån\20131207\20120510\Debug\debug.o
 .debug_aranges
                0x00000360       0x20 C:\Users\USER\Desktop\com\í êMån\20131207\20120510\Debug\command.o
 .debug_aranges
                0x00000380       0x20 C:\Users\USER\Desktop\com\í êMån\20131207\20120510\Debug\comm_buffer.o
 .debug_aranges
                0x000003a0       0x20 C:\Users\USER\Desktop\com\í êMån\20131207\20120510\Debug\adconv.o
 .debug_aranges
                0x000003c0       0x20 C:\Users\USER\Desktop\com\í êMån\20131207\20120510\Debug\20120510.o

.debug_ranges   0x00000000       0x30
 .debug_ranges  0x00000000       0x18 C:\Users\USER\Desktop\com\í êMån\20131207\20120510\Debug\timer.o
 .debug_ranges  0x00000018       0x18 C:\Users\USER\Desktop\com\í êMån\20131207\20120510\Debug\command.o


==============================================================

Listfile generated by KPIT GNUH8 [ELF]-v12.01 on Monday, December 09, 2013, 09:54:35

Build options:

-T "C:\Users\USER\Desktop\com\í êMån\20131207\20120510\Debug\20131207_Debug_auto.gsi"
-T "C:\Users\USER\Desktop\com\í êMån\20131207\20120510\Debug\20131207_input.tmp" 
-L "c:\program files\renesas\hew\tools\kpit\gnuh8-elf\v12.01\h8300-elf\lib\gcc\h8300-elf\4.6-GNUH8_v12.01\h8300h"
-L "C:\Users\USER\Desktop\com\í êMån\20131207\20120510\Debug"
-Map "C:\Users\USER\Desktop\com\í êMån\20131207\20120510\Debug\20131207.map"
-( -l "gcc" -l "20120510" -)
-o "C:\Users\USER\Desktop\com\í êMån\20131207\20120510\Debug\20131207.x"
-e _start
INPUT("C:\Users\USER\Desktop\com\í êMån\20131207\20120510\Debug\vects.o")
INPUT("C:\Users\USER\Desktop\com\í êMån\20131207\20120510\Debug\timer.o")
INPUT("C:\Users\USER\Desktop\com\í êMån\20131207\20120510\Debug\teleme.o")
INPUT("C:\Users\USER\Desktop\com\í êMån\20131207\20120510\Debug\start.o")
INPUT("C:\Users\USER\Desktop\com\í êMån\20131207\20120510\Debug\sci_util.o")
INPUT("C:\Users\USER\Desktop\com\í êMån\20131207\20120510\Debug\sci2.o")
INPUT("C:\Users\USER\Desktop\com\í êMån\20131207\20120510\Debug\sci1.o")
INPUT("C:\Users\USER\Desktop\com\í êMån\20131207\20120510\Debug\sci0.o")
INPUT("C:\Users\USER\Desktop\com\í êMån\20131207\20120510\Debug\rx_protcol_inv.o")
INPUT("C:\Users\USER\Desktop\com\í êMån\20131207\20120510\Debug\rx_pll_inv.o")
INPUT("C:\Users\USER\Desktop\com\í êMån\20131207\20120510\Debug\rx.o")
INPUT("C:\Users\USER\Desktop\com\í êMån\20131207\20120510\Debug\pwr.o")
INPUT("C:\Users\USER\Desktop\com\í êMån\20131207\20120510\Debug\put_status.o")
INPUT("C:\Users\USER\Desktop\com\í êMån\20131207\20120510\Debug\mission.o")
INPUT("C:\Users\USER\Desktop\com\í êMån\20131207\20120510\Debug\message.o")
INPUT("C:\Users\USER\Desktop\com\í êMån\20131207\20120510\Debug\itu1.o")
INPUT("C:\Users\USER\Desktop\com\í êMån\20131207\20120510\Debug\itu0.o")
INPUT("C:\Users\USER\Desktop\com\í êMån\20131207\20120510\Debug\inthandler.o")
INPUT("C:\Users\USER\Desktop\com\í êMån\20131207\20120510\Debug\init.o")
INPUT("C:\Users\USER\Desktop\com\í êMån\20131207\20120510\Debug\iic2.o")
INPUT("C:\Users\USER\Desktop\com\í êMån\20131207\20120510\Debug\iic1.o")
INPUT("C:\Users\USER\Desktop\com\í êMån\20131207\20120510\Debug\iic0.o")
INPUT("C:\Users\USER\Desktop\com\í êMån\20131207\20120510\Debug\hwinit.o")
INPUT("C:\Users\USER\Desktop\com\í êMån\20131207\20120510\Debug\global.o")
INPUT("C:\Users\USER\Desktop\com\í êMån\20131207\20120510\Debug\fm_tx.o")
INPUT("C:\Users\USER\Desktop\com\í êMån\20131207\20120510\Debug\fm_ptt.o")
INPUT("C:\Users\USER\Desktop\com\í êMån\20131207\20120510\Debug\fm_pllcontrol.o")
INPUT("C:\Users\USER\Desktop\com\í êMån\20131207\20120510\Debug\debug.o")
INPUT("C:\Users\USER\Desktop\com\í êMån\20131207\20120510\Debug\command.o")
INPUT("C:\Users\USER\Desktop\com\í êMån\20131207\20120510\Debug\comm_buffer.o")
INPUT("C:\Users\USER\Desktop\com\í êMån\20131207\20120510\Debug\adconv.o")
INPUT("C:\Users\USER\Desktop\com\í êMån\20131207\20120510\Debug\20120510.o")
