Archive member included because of file (symbol)

c:\program files\renesas\hew\tools\kpit\gnuh8-elf\v12.01\h8300-elf\lib\gcc\h8300-elf\4.6-GNUH8_v12.01\h8300h\libgcc.a(_divsi3.o)
                              C:\Users\nozomi\Desktop\com\í êMån\20130815\20120510\Debug\sci2.o (__udivsi3)
c:\program files\renesas\hew\tools\kpit\gnuh8-elf\v12.01\h8300-elf\lib\gcc\h8300-elf\4.6-GNUH8_v12.01\h8300h\libgcc.a(_mulsi3.o)
                              C:\Users\nozomi\Desktop\com\í êMån\20130815\20120510\Debug\sci2.o (__mulsi3)
c:\program files\renesas\hew\tools\kpit\gnuh8-elf\v12.01\h8300-elf\lib\gcc\h8300-elf\4.6-GNUH8_v12.01\h8300h\libgcc.a(_fixunssfsi.o)
                              C:\Users\nozomi\Desktop\com\í êMån\20130815\20120510\Debug\teleme.o (__fixunssfsi)
c:\program files\renesas\hew\tools\kpit\gnuh8-elf\v12.01\h8300-elf\lib\gcc\h8300-elf\4.6-GNUH8_v12.01\h8300h\libgcc.a(_addsub_sf.o)
                              c:\program files\renesas\hew\tools\kpit\gnuh8-elf\v12.01\h8300-elf\lib\gcc\h8300-elf\4.6-GNUH8_v12.01\h8300h\libgcc.a(_fixunssfsi.o) (__subsf3)
c:\program files\renesas\hew\tools\kpit\gnuh8-elf\v12.01\h8300-elf\lib\gcc\h8300-elf\4.6-GNUH8_v12.01\h8300h\libgcc.a(_div_sf.o)
                              C:\Users\nozomi\Desktop\com\í êMån\20130815\20120510\Debug\teleme.o (__divsf3)
c:\program files\renesas\hew\tools\kpit\gnuh8-elf\v12.01\h8300-elf\lib\gcc\h8300-elf\4.6-GNUH8_v12.01\h8300h\libgcc.a(_ge_sf.o)
                              c:\program files\renesas\hew\tools\kpit\gnuh8-elf\v12.01\h8300-elf\lib\gcc\h8300-elf\4.6-GNUH8_v12.01\h8300h\libgcc.a(_fixunssfsi.o) (__gesf2)
c:\program files\renesas\hew\tools\kpit\gnuh8-elf\v12.01\h8300-elf\lib\gcc\h8300-elf\4.6-GNUH8_v12.01\h8300h\libgcc.a(_si_to_sf.o)
                              C:\Users\nozomi\Desktop\com\í êMån\20130815\20120510\Debug\teleme.o (__floatsisf)
c:\program files\renesas\hew\tools\kpit\gnuh8-elf\v12.01\h8300-elf\lib\gcc\h8300-elf\4.6-GNUH8_v12.01\h8300h\libgcc.a(_sf_to_si.o)
                              c:\program files\renesas\hew\tools\kpit\gnuh8-elf\v12.01\h8300-elf\lib\gcc\h8300-elf\4.6-GNUH8_v12.01\h8300h\libgcc.a(_fixunssfsi.o) (__fixsfsi)
c:\program files\renesas\hew\tools\kpit\gnuh8-elf\v12.01\h8300-elf\lib\gcc\h8300-elf\4.6-GNUH8_v12.01\h8300h\libgcc.a(_thenan_sf.o)
                              c:\program files\renesas\hew\tools\kpit\gnuh8-elf\v12.01\h8300-elf\lib\gcc\h8300-elf\4.6-GNUH8_v12.01\h8300h\libgcc.a(_addsub_sf.o) (__thenan_sf)
c:\program files\renesas\hew\tools\kpit\gnuh8-elf\v12.01\h8300-elf\lib\gcc\h8300-elf\4.6-GNUH8_v12.01\h8300h\libgcc.a(_clzsi2.o)
                              c:\program files\renesas\hew\tools\kpit\gnuh8-elf\v12.01\h8300-elf\lib\gcc\h8300-elf\4.6-GNUH8_v12.01\h8300h\libgcc.a(_si_to_sf.o) (__clzsi2)
c:\program files\renesas\hew\tools\kpit\gnuh8-elf\v12.01\h8300-elf\lib\gcc\h8300-elf\4.6-GNUH8_v12.01\h8300h\libgcc.a(_pack_sf.o)
                              c:\program files\renesas\hew\tools\kpit\gnuh8-elf\v12.01\h8300-elf\lib\gcc\h8300-elf\4.6-GNUH8_v12.01\h8300h\libgcc.a(_addsub_sf.o) (__pack_f)
c:\program files\renesas\hew\tools\kpit\gnuh8-elf\v12.01\h8300-elf\lib\gcc\h8300-elf\4.6-GNUH8_v12.01\h8300h\libgcc.a(_unpack_sf.o)
                              c:\program files\renesas\hew\tools\kpit\gnuh8-elf\v12.01\h8300-elf\lib\gcc\h8300-elf\4.6-GNUH8_v12.01\h8300h\libgcc.a(_addsub_sf.o) (__unpack_f)
c:\program files\renesas\hew\tools\kpit\gnuh8-elf\v12.01\h8300-elf\lib\gcc\h8300-elf\4.6-GNUH8_v12.01\h8300h\libgcc.a(_fpcmp_parts_sf.o)
                              c:\program files\renesas\hew\tools\kpit\gnuh8-elf\v12.01\h8300-elf\lib\gcc\h8300-elf\4.6-GNUH8_v12.01\h8300h\libgcc.a(_ge_sf.o) (__fpcmp_parts_f)
c:\program files\renesas\hew\tools\kpit\gnuh8-elf\v12.01\h8300-elf\lib\gcc\h8300-elf\4.6-GNUH8_v12.01\h8300h\libgcc.a(_clz.o)
                              c:\program files\renesas\hew\tools\kpit\gnuh8-elf\v12.01\h8300-elf\lib\gcc\h8300-elf\4.6-GNUH8_v12.01\h8300h\libgcc.a(_clzsi2.o) (__clz_tab)
C:\Users\nozomi\Desktop\com\í êMån\20130815\20120510\Debug\lib20120510.a(exit.o)
                              C:\Users\nozomi\Desktop\com\í êMån\20130815\20120510\Debug\start.o (exit)
C:\Users\nozomi\Desktop\com\í êMån\20130815\20120510\Debug\lib20120510.a(newfree.o)
                              C:\Users\nozomi\Desktop\com\í êMån\20130815\20120510\Debug\rx.o (free)
C:\Users\nozomi\Desktop\com\í êMån\20130815\20120510\Debug\lib20120510.a(newheap.o)
                              C:\Users\nozomi\Desktop\com\í êMån\20130815\20120510\Debug\lib20120510.a(newfree.o) (_heap_of_memory)
C:\Users\nozomi\Desktop\com\í êMån\20130815\20120510\Debug\lib20120510.a(newmalloc.o)
                              C:\Users\nozomi\Desktop\com\í êMån\20130815\20120510\Debug\rx_protcol_inv.o (malloc)
C:\Users\nozomi\Desktop\com\í êMån\20130815\20120510\Debug\lib20120510.a(_exit.o)
                              C:\Users\nozomi\Desktop\com\í êMån\20130815\20120510\Debug\lib20120510.a(exit.o) (_exit)

Allocating common symbols
Common symbol       size              file

command_H           0x78              C:\Users\nozomi\Desktop\com\í êMån\20130815\20120510\Debug\command.o
P2_DDR              0x1               C:\Users\nozomi\Desktop\com\í êMån\20130815\20120510\Debug\iic2.o
ena_overa           0x3               C:\Users\nozomi\Desktop\com\í êMån\20130815\20120510\Debug\teleme.o
flag_dispAD         0x3               C:\Users\nozomi\Desktop\com\í êMån\20130815\20120510\Debug\teleme.o
flag_overa          0x3               C:\Users\nozomi\Desktop\com\í êMån\20130815\20120510\Debug\teleme.o
flag_send_fm        0x1               C:\Users\nozomi\Desktop\com\í êMån\20130815\20120510\Debug\message.o
i                   0x2               C:\Users\nozomi\Desktop\com\í êMån\20130815\20120510\Debug\rx_protcol_inv.o
ena_alive           0x3               C:\Users\nozomi\Desktop\com\í êMån\20130815\20120510\Debug\pwr.o
fcslo               0x1               C:\Users\nozomi\Desktop\com\í êMån\20130815\20120510\Debug\rx_protcol_inv.o
flag_dteleme        0x3               C:\Users\nozomi\Desktop\com\í êMån\20130815\20120510\Debug\teleme.o
flag_exe            0x3               C:\Users\nozomi\Desktop\com\í êMån\20130815\20120510\Debug\message.o
ena_rteleme         0x3               C:\Users\nozomi\Desktop\com\í êMån\20130815\20120510\Debug\teleme.o
ena_ateleme         0x3               C:\Users\nozomi\Desktop\com\í êMån\20130815\20120510\Debug\teleme.o
flag_pwrt           0x3               C:\Users\nozomi\Desktop\com\í êMån\20130815\20120510\Debug\pwr.o
ena_pwrt            0x3               C:\Users\nozomi\Desktop\com\í êMån\20130815\20120510\Debug\pwr.o
flag_ad             0x3               C:\Users\nozomi\Desktop\com\í êMån\20130815\20120510\Debug\teleme.o
my_wdt              0x4               C:\Users\nozomi\Desktop\com\í êMån\20130815\20120510\Debug\teleme.o
uplink_rx_buff      0x4               C:\Users\nozomi\Desktop\com\í êMån\20130815\20120510\Debug\rx_protcol_inv.o
flag_iteleme        0x3               C:\Users\nozomi\Desktop\com\í êMån\20130815\20120510\Debug\teleme.o
ena_iteleme         0x3               C:\Users\nozomi\Desktop\com\í êMån\20130815\20120510\Debug\teleme.o
kbit                0x2               C:\Users\nozomi\Desktop\com\í êMån\20130815\20120510\Debug\rx_protcol_inv.o
ena_mywdt           0x3               C:\Users\nozomi\Desktop\com\í êMån\20130815\20120510\Debug\teleme.o
itu1_cnt            0x4               C:\Users\nozomi\Desktop\com\í êMån\20130815\20120510\Debug\teleme.o
ena_dteleme         0x3               C:\Users\nozomi\Desktop\com\í êMån\20130815\20120510\Debug\teleme.o
flag_ateleme        0x3               C:\Users\nozomi\Desktop\com\í êMån\20130815\20120510\Debug\teleme.o
ena_misst           0x3               C:\Users\nozomi\Desktop\com\í êMån\20130815\20120510\Debug\mission.o
time                0x2               C:\Users\nozomi\Desktop\com\í êMån\20130815\20120510\Debug\timer.o
FmPreamble          0x4               C:\Users\nozomi\Desktop\com\í êMån\20130815\20120510\Debug\message.o
command_M           0x78              C:\Users\nozomi\Desktop\com\í êMån\20130815\20120510\Debug\command.o
stuff               0x1               C:\Users\nozomi\Desktop\com\í êMån\20130815\20120510\Debug\message.o
info_length         0x2               C:\Users\nozomi\Desktop\com\í êMån\20130815\20120510\Debug\rx_protcol_inv.o
fcsflag_send_fm     0x1               C:\Users\nozomi\Desktop\com\í êMån\20130815\20120510\Debug\message.o
ena_ad              0x3               C:\Users\nozomi\Desktop\com\í êMån\20130815\20120510\Debug\teleme.o
fcshi               0x1               C:\Users\nozomi\Desktop\com\í êMån\20130815\20120510\Debug\rx_protcol_inv.o
flag_oteleme        0x3               C:\Users\nozomi\Desktop\com\í êMån\20130815\20120510\Debug\teleme.o
flag_rteleme        0x3               C:\Users\nozomi\Desktop\com\í êMån\20130815\20120510\Debug\teleme.o
flag_alive          0x3               C:\Users\nozomi\Desktop\com\í êMån\20130815\20120510\Debug\pwr.o
ena_dispAD          0x3               C:\Users\nozomi\Desktop\com\í êMån\20130815\20120510\Debug\teleme.o
mpx                 0x20              C:\Users\nozomi\Desktop\com\í êMån\20130815\20120510\Debug\teleme.o
flag_scirx          0x3               C:\Users\nozomi\Desktop\com\í êMån\20130815\20120510\Debug\message.o
status              0x7f              C:\Users\nozomi\Desktop\com\í êMån\20130815\20120510\Debug\teleme.o
flag_misst          0x3               C:\Users\nozomi\Desktop\com\í êMån\20130815\20120510\Debug\mission.o
command_L           0x78              C:\Users\nozomi\Desktop\com\í êMån\20130815\20120510\Debug\command.o
ena_oteleme         0x3               C:\Users\nozomi\Desktop\com\í êMån\20130815\20120510\Debug\teleme.o
message_global      0xcc              C:\Users\nozomi\Desktop\com\í êMån\20130815\20120510\Debug\teleme.o

Memory Configuration

Name             Origin             Length             Attributes
*default*        0x00000000         0xffffffff

Linker script and memory map


.vects          0x00000000      0x100
 *(.vects)
 .vects         0x00000000      0x100 C:\Users\nozomi\Desktop\com\í êMån\20130815\20120510\Debug\vects.o
                0x00000000                HardwareVectors

.text           0x00000400     0xe9b4
 *(.text)
 .text          0x00000400        0x0 C:\Users\nozomi\Desktop\com\í êMån\20130815\20120510\Debug\vects.o
 .text          0x00000400       0xe4 C:\Users\nozomi\Desktop\com\í êMån\20130815\20120510\Debug\timer.o
                0x00000400                delay_ms
                0x00000482                delay_us
 .text          0x000004e4     0x12d0 C:\Users\nozomi\Desktop\com\í êMån\20130815\20120510\Debug\teleme.o
                0x000004e4                InitTelemetry
                0x00000526                SetTelemetry_Rough
                0x000009e6                SetTelemetry_Detail
                0x00000ea6                SetTelemetry_API
                0x000011ce                SetTelemetry_Initial
                0x000012e8                Read_Initial
                0x00001538                OBC_Majority
                0x000016d4                Error_Majority
 .text          0x000017b4       0x50 C:\Users\nozomi\Desktop\com\í êMån\20130815\20120510\Debug\start.o
                0x000017b4                start
 .text          0x00001804      0x12c C:\Users\nozomi\Desktop\com\í êMån\20130815\20120510\Debug\sci_util.o
                0x00001804                debug_sci_init
                0x00001834                debug_putc
                0x00001852                debug_puts
                0x00001874                debug_getc
                0x00001888                debug_puthex
                0x000018e2                debug_putdec
                0x00001904                HexToAscii
 .text          0x00001930      0x6d0 C:\Users\nozomi\Desktop\com\í êMån\20130815\20120510\Debug\sci2.o
                0x00001930                sci2_init
                0x00001a64                sci2_putc
                0x00001b24                sci2_puthex
                0x00001b6c                sci2_putdec
                0x00001cce                sci2_putdoublehex
                0x00001cfa                sci2_putfourhex
                0x00001d2c                sci2_putcrlf
                0x00001d44                sci2_puts
                0x00001db0                sci2_getc
                0x00001e4a                INT_ERI2
                0x00001e7c                INT_RXI2
                0x00001f10                INT_TXI2
                0x00001fce                INT_TEI2
 .text          0x00002000      0x6d0 C:\Users\nozomi\Desktop\com\í êMån\20130815\20120510\Debug\sci1.o
                0x00002000                sci1_init
                0x00002134                sci1_putc
                0x000021f4                sci1_puthex
                0x0000223c                sci1_putdec
                0x0000239e                sci1_putdoublehex
                0x000023ca                sci1_putfourhex
                0x000023fc                sci1_putcrlf
                0x00002414                sci1_puts
                0x00002480                sci1_getc
                0x0000251a                INT_ERI1
                0x0000254c                INT_RXI1
                0x000025e0                INT_TXI1
                0x0000269e                INT_TEI1
 .text          0x000026d0      0x6d0 C:\Users\nozomi\Desktop\com\í êMån\20130815\20120510\Debug\sci0.o
                0x000026d0                sci0_init
                0x00002804                sci0_putc
                0x000028c4                sci0_puthex
                0x0000290c                sci0_putdec
                0x00002a6e                sci0_putdoublehex
                0x00002a9a                sci0_putfourhex
                0x00002acc                sci0_putcrlf
                0x00002ae4                sci0_puts
                0x00002b50                sci0_getc
                0x00002bea                INT_ERI0
                0x00002c1c                INT_RXI0
                0x00002cb0                INT_TXI0
                0x00002d6e                INT_TEI0
 .text          0x00002da0      0x7de C:\Users\nozomi\Desktop\com\í êMån\20130815\20120510\Debug\rx_protcol_inv.o
                0x00002da0                init_itu
                0x00002dde                bitin
                0x00002e96                get_byte
                0x00002fac                get_buff
                0x0000309a                precrc_bit
                0x000030ee                Ax_to_info
                0x00003412                get_data
                0x000034c0                rx_init
 .text          0x0000357e      0x252 C:\Users\nozomi\Desktop\com\í êMån\20130815\20120510\Debug\rx_pll_inv.o
                0x0000357e                out_bit
                0x000035d4                strobe
                0x000035f8                out_bits
                0x00003656                set_reference_divider
                0x00003690                set_option_register
                0x00003710                set_programmable_divider
                0x00003762                pll_init
 .text          0x000037d0       0xa0 C:\Users\nozomi\Desktop\com\í êMån\20130815\20120510\Debug\rx.o
                0x000037d0                main
 .text          0x00003870      0x248 C:\Users\nozomi\Desktop\com\í êMån\20130815\20120510\Debug\pwr.o
                0x00003870                InitPowerTelemetry
                0x00003894                RequestPowerTelemetry
                0x000038ae                UpdatePowerTelemetry
                0x00003a48                RequestMainShutdown
                0x00003a84                SendHDRtoPIC
                0x00003a9e                SendHDStoPIC
 .text          0x00003ab8      0xe30 C:\Users\nozomi\Desktop\com\í êMån\20130815\20120510\Debug\put_status.o
                0x00003ab8                SendStatusToGS
                0x00003f86                SendTelemetryToGS
                0x00003fae                PutOut_Rough
                0x0000420e                PutOut_Detail
                0x0000446e                PutOut_API
                0x000046b8                PutOut_Initial
 .text          0x000048e8      0x6ee C:\Users\nozomi\Desktop\com\í êMån\20130815\20120510\Debug\mission.o
                0x000048e8                InitMissionTelemetry
                0x00004902                SendMissionTelemetory
                0x00004daa                RequestMissionReboot
                0x00004de6                RequestMissionShutdown
                0x00004e72                PronounceMissionAbort
                0x00004ed0                itu2_init
                0x00004f32                INT_IMIA2
 .text          0x00004fd6     0x1c4a C:\Users\nozomi\Desktop\com\í êMån\20130815\20120510\Debug\message.o
                0x00004fd6                InitMessage
                0x00004ff0                SplitMessage_SCI0
                0x000052bc                SplitMessage_SCI1
                0x000055d6                SplitMessage_SCI2
                0x000058f0                RecognizeCommand
                0x00005d42                RecognizeMissionCommand
                0x000061ac                FindCommand
                0x000061d0                TransmitMessage
                0x00006204                InitPLL
                0x0000621c                SendMessage
                0x00006620                FinishSendMessage
                0x00006648                FinishCommunication
                0x000066d8                SendStatusMessage
 .text          0x00006c20      0x362 C:\Users\nozomi\Desktop\com\í êMån\20130815\20120510\Debug\itu1.o
                0x00006c20                itu1_init
                0x00006cb2                INT_IMIA1
 .text          0x00006f82      0x10a C:\Users\nozomi\Desktop\com\í êMån\20130815\20120510\Debug\itu0.o
                0x00006f82                itu0_init
                0x00007000                INT_IMIA0
                0x00007046                INT_IMIB0
 .text          0x0000708c      0x174 C:\Users\nozomi\Desktop\com\í êMån\20130815\20120510\Debug\inthandler.o
                0x0000708c                INT_NMI
                0x00007098                INT_TRAP1
                0x000070a4                INT_TRAP2
                0x000070b0                INT_TRAP3
                0x000070bc                INT_TRAP4
                0x000070c8                INT_IRQ0
                0x000070d4                INT_IRQ1
                0x000070e0                INT_IRQ2
                0x000070ec                INT_IRQ3
                0x000070f8                INT_IRQ4
                0x00007104                INT_IRQ5
                0x00007110                INT_WOVI
                0x0000711c                INT_CMI
                0x00007128                INT_ADI
                0x00007134                INT_OVI0
                0x00007140                INT_IMIB1
                0x0000714c                INT_OVI1
                0x00007158                INT_IMIB2
                0x00007164                INT_OVI2
                0x00007170                INT_CMIA0
                0x0000717c                INT_CMIB0
                0x00007188                INT_CMIA1B1
                0x00007194                INT_TOVI0_1
                0x000071a0                INT_CMIA2
                0x000071ac                INT_CMIB2
                0x000071b8                INT_CMIA3B3
                0x000071c4                INT_TOVI2_3
                0x000071d0                INT_DEND0A
                0x000071dc                INT_DEND0B
                0x000071e8                INT_DEND1A
                0x000071f4                INT_DEND1B
 .text          0x00007200      0x2cc C:\Users\nozomi\Desktop\com\í êMån\20130815\20120510\Debug\init.o
                0x00007200                Init_MyFunction
                0x0000732c                Init_Bus
                0x00007480                Init_Peripherals
 .text          0x000074cc      0x7d8 C:\Users\nozomi\Desktop\com\í êMån\20130815\20120510\Debug\iic2.o
                0x000074cc                IIC2_EEPWAIT
                0x000078ca                IIC2_EEPSTOP
                0x00007964                IIC2_EEPREAD
                0x00007a88                IIC2_EEPWRITE
                0x00007b88                IIC2_EEPRESET
                0x00007c4a                IIC2_EEPINIT
                0x00007c6c                IIC2_EEPCHANGE
 .text          0x00007ca4      0x7de C:\Users\nozomi\Desktop\com\í êMån\20130815\20120510\Debug\iic1.o
                0x00007ca4                IIC1_EEPWAIT
                0x000080a8                IIC1_EEPSTOP
                0x00008142                IIC1_EEPREAD
                0x00008266                IIC1_EEPWRITE
                0x00008366                IIC1_EEPRESET
                0x00008428                IIC1_EEPINIT
                0x0000844a                IIC1_EEPCHANGE
 .text          0x00008482      0x7de C:\Users\nozomi\Desktop\com\í êMån\20130815\20120510\Debug\iic0.o
                0x00008482                IIC0_EEPWAIT
                0x00008886                IIC0_EEPSTOP
                0x00008920                IIC0_EEPREAD
                0x00008a44                IIC0_EEPWRITE
                0x00008b44                IIC0_EEPRESET
                0x00008c06                IIC0_EEPINIT
                0x00008c28                IIC0_EEPCHANGE
 .text          0x00008c60        0xc C:\Users\nozomi\Desktop\com\í êMån\20130815\20120510\Debug\hwinit.o
                0x00008c60                hw_initialise
 .text          0x00008c6c      0x452 C:\Users\nozomi\Desktop\com\í êMån\20130815\20120510\Debug\global.o
                0x00008c6c                InitStatus
                0x00008f14                InitRoutine
                0x00008f9c                CheckFlags
                0x0000902e                ClearFlags
                0x00009076                SetFlags
 .text          0x000090be      0x828 C:\Users\nozomi\Desktop\com\í êMån\20130815\20120510\Debug\fm_tx.o
                0x000090be                init_modem
                0x0000911e                init_fm
                0x000091a2                delay_modem
                0x000091be                send_bit
                0x00009234                crcbit
                0x0000930e                send_byte
                0x000093c0                send_packet
                0x00009476                AX_protocol
                0x000096e4                on_off_ms
                0x00009774                on_off_sec
                0x00009856                on_off_us
 .text          0x000098e6       0x30 C:\Users\nozomi\Desktop\com\í êMån\20130815\20120510\Debug\fm_ptt.o
                0x000098e6                fmptt_on
                0x000098fe                fmptt_off
 .text          0x00009916      0x2e4 C:\Users\nozomi\Desktop\com\í êMån\20130815\20120510\Debug\fm_pllcontrol.o
                0x00009916                out_bit_fm
                0x00009974                strobe_fm
                0x000099a8                out_bits_fm
                0x00009a04                set_reference_divider_fm
                0x00009a3a                set_option_register_fm
                0x00009ab8                set_programmable_divider_fm
                0x00009b24                pll_init_fm
                0x00009b96                set_pll_fm
 .text          0x00009bfa     0x2a76 C:\Users\nozomi\Desktop\com\í êMån\20130815\20120510\Debug\debug.o
                0x00009bfa                DebugMultiplexer
                0x00009d68                DebugPut_Status
                0x0000a210                DebugPut_Telemetry
                0x0000a502                DebugEEPROM
                0x0000a9c2                DebugDetail_Status
                0x0000aa26                DebugPut_Rough
                0x0000ad60                DebugPut_Detail
                0x0000b09a                DebugPut_API
                0x0000b3a4                DebugPut_Initial
                0x0000b6ae                Debug_SharedROM
                0x0000b8ee                DebugWrite_SharedROM
                0x0000c0ba                DebugPut_SharedROM
                0x0000c1a6                DisplayRoutine
                0x0000c3d0                SetRoutine
                0x0000c5ea                Check_PowerData
 .text          0x0000c670     0x1412 C:\Users\nozomi\Desktop\com\í êMån\20130815\20120510\Debug\command.o
                0x0000c670                GetCommandID
                0x0000ce38                GetMissionCommandID
                0x0000cef8                RegistCommand
                0x0000d2f6                RegistMissionCommand
                0x0000d468                ExecuteCommand
 .text          0x0000da82       0x5e C:\Users\nozomi\Desktop\com\í êMån\20130815\20120510\Debug\comm_buffer.o
                0x0000da82                comm_buffer_init
 .text          0x0000dae0      0x6da C:\Users\nozomi\Desktop\com\í êMån\20130815\20120510\Debug\adconv.o
                0x0000dae0                adconv_init
                0x0000db1a                ami_switch
                0x0000db92                mpx_switch
                0x0000dc72                get_sensor
                0x0000df4a                check_overAmpare
                0x0000dffe                insertSpace
                0x0000e044                disp_AD
 *fill*         0x0000e1ba        0x2 00
 .text          0x0000e1bc       0x8c c:\program files\renesas\hew\tools\kpit\gnuh8-elf\v12.01\h8300-elf\lib\gcc\h8300-elf\4.6-GNUH8_v12.01\h8300h\libgcc.a(_divsi3.o)
                0x0000e1de                __modsi3
                0x0000e1ea                __umodsi3
                0x0000e1f0                __divsi3
                0x0000e206                __udivsi3
 .text          0x0000e248       0x18 c:\program files\renesas\hew\tools\kpit\gnuh8-elf\v12.01\h8300-elf\lib\gcc\h8300-elf\4.6-GNUH8_v12.01\h8300h\libgcc.a(_mulsi3.o)
                0x0000e248                __mulsi3
 .text          0x0000e260       0x40 c:\program files\renesas\hew\tools\kpit\gnuh8-elf\v12.01\h8300-elf\lib\gcc\h8300-elf\4.6-GNUH8_v12.01\h8300h\libgcc.a(_fixunssfsi.o)
                0x0000e260                __fixunssfsi
 .text          0x0000e2a0      0x36c c:\program files\renesas\hew\tools\kpit\gnuh8-elf\v12.01\h8300-elf\lib\gcc\h8300-elf\4.6-GNUH8_v12.01\h8300h\libgcc.a(_addsub_sf.o)
                0x0000e536                __addsf3
                0x0000e59c                __subsf3
 .text          0x0000e60c      0x138 c:\program files\renesas\hew\tools\kpit\gnuh8-elf\v12.01\h8300-elf\lib\gcc\h8300-elf\4.6-GNUH8_v12.01\h8300h\libgcc.a(_div_sf.o)
                0x0000e60c                __divsf3
 .text          0x0000e744       0x72 c:\program files\renesas\hew\tools\kpit\gnuh8-elf\v12.01\h8300-elf\lib\gcc\h8300-elf\4.6-GNUH8_v12.01\h8300h\libgcc.a(_ge_sf.o)
                0x0000e744                __gesf2
 .text          0x0000e7b6       0x9c c:\program files\renesas\hew\tools\kpit\gnuh8-elf\v12.01\h8300-elf\lib\gcc\h8300-elf\4.6-GNUH8_v12.01\h8300h\libgcc.a(_si_to_sf.o)
                0x0000e7b6                __floatsisf
 .text          0x0000e852       0x82 c:\program files\renesas\hew\tools\kpit\gnuh8-elf\v12.01\h8300-elf\lib\gcc\h8300-elf\4.6-GNUH8_v12.01\h8300h\libgcc.a(_sf_to_si.o)
                0x0000e852                __fixsfsi
 .text          0x0000e8d4        0x0 c:\program files\renesas\hew\tools\kpit\gnuh8-elf\v12.01\h8300-elf\lib\gcc\h8300-elf\4.6-GNUH8_v12.01\h8300h\libgcc.a(_thenan_sf.o)
 .text          0x0000e8d4       0x5a c:\program files\renesas\hew\tools\kpit\gnuh8-elf\v12.01\h8300-elf\lib\gcc\h8300-elf\4.6-GNUH8_v12.01\h8300h\libgcc.a(_clzsi2.o)
                0x0000e8d4                __clzsi2
 .text          0x0000e92e      0x14c c:\program files\renesas\hew\tools\kpit\gnuh8-elf\v12.01\h8300-elf\lib\gcc\h8300-elf\4.6-GNUH8_v12.01\h8300h\libgcc.a(_pack_sf.o)
                0x0000e92e                __pack_f
 .text          0x0000ea7a       0xb0 c:\program files\renesas\hew\tools\kpit\gnuh8-elf\v12.01\h8300-elf\lib\gcc\h8300-elf\4.6-GNUH8_v12.01\h8300h\libgcc.a(_unpack_sf.o)
                0x0000ea7a                __unpack_f
 .text          0x0000eb2a       0xa0 c:\program files\renesas\hew\tools\kpit\gnuh8-elf\v12.01\h8300-elf\lib\gcc\h8300-elf\4.6-GNUH8_v12.01\h8300h\libgcc.a(_fpcmp_parts_sf.o)
                0x0000eb2a                __fpcmp_parts_f
 .text          0x0000ebca        0x0 c:\program files\renesas\hew\tools\kpit\gnuh8-elf\v12.01\h8300-elf\lib\gcc\h8300-elf\4.6-GNUH8_v12.01\h8300h\libgcc.a(_clz.o)
 .text          0x0000ebca        0x0 C:\Users\nozomi\Desktop\com\í êMån\20130815\20120510\Debug\lib20120510.a(exit.o)
 .text          0x0000ebca        0x0 C:\Users\nozomi\Desktop\com\í êMån\20130815\20120510\Debug\lib20120510.a(newfree.o)
 .text          0x0000ebca        0x0 C:\Users\nozomi\Desktop\com\í êMån\20130815\20120510\Debug\lib20120510.a(newheap.o)
 .text          0x0000ebca        0x0 C:\Users\nozomi\Desktop\com\í êMån\20130815\20120510\Debug\lib20120510.a(newmalloc.o)
 *fill*         0x0000ebca        0x2 00
 .text          0x0000ebcc       0x10 C:\Users\nozomi\Desktop\com\í êMån\20130815\20120510\Debug\lib20120510.a(_exit.o)
                0x0000ebcc                _exit
 *(.text.*)
 .text.exit     0x0000ebdc       0x10 C:\Users\nozomi\Desktop\com\í êMån\20130815\20120510\Debug\lib20120510.a(exit.o)
                0x0000ebdc                exit
 .text.free     0x0000ebec       0xd4 C:\Users\nozomi\Desktop\com\í êMån\20130815\20120510\Debug\lib20120510.a(newfree.o)
                0x0000ebec                free
 .text._top_of_heap
                0x0000ecc0        0xe C:\Users\nozomi\Desktop\com\í êMån\20130815\20120510\Debug\lib20120510.a(newheap.o)
                0x0000ecc0                _top_of_heap
 .text._make_new_mem_hole
                0x0000ecce       0x2e C:\Users\nozomi\Desktop\com\í êMån\20130815\20120510\Debug\lib20120510.a(newmalloc.o)
                0x0000ecce                _make_new_mem_hole
 .text.malloc   0x0000ecfc       0xb8 C:\Users\nozomi\Desktop\com\í êMån\20130815\20120510\Debug\lib20120510.a(newmalloc.o)
                0x0000ecfc                malloc
                0x0000edb4                etext = .

.init
 *(.init)

.fini
 *(.fini)

.got
 *(.got)
 *(.got.plt)

.rodata         0x0000edb4      0x8e0
 *(.rodata)
 .rodata        0x0000edb4       0x34 C:\Users\nozomi\Desktop\com\í êMån\20130815\20120510\Debug\teleme.o
 .rodata        0x0000ede8       0xb8 C:\Users\nozomi\Desktop\com\í êMån\20130815\20120510\Debug\rx_protcol_inv.o
 .rodata        0x0000eea0       0x3b C:\Users\nozomi\Desktop\com\í êMån\20130815\20120510\Debug\rx.o
 .rodata        0x0000eedb       0x34 C:\Users\nozomi\Desktop\com\í êMån\20130815\20120510\Debug\pwr.o
 .rodata        0x0000ef0f       0x3b C:\Users\nozomi\Desktop\com\í êMån\20130815\20120510\Debug\put_status.o
 .rodata        0x0000ef4a       0xb4 C:\Users\nozomi\Desktop\com\í êMån\20130815\20120510\Debug\mission.o
 .rodata        0x0000effe       0xc1 C:\Users\nozomi\Desktop\com\í êMån\20130815\20120510\Debug\message.o
 *fill*         0x0000f0bf        0x1 00
 .rodata        0x0000f0c0      0x340 C:\Users\nozomi\Desktop\com\í êMån\20130815\20120510\Debug\debug.o
 .rodata        0x0000f400      0x15c C:\Users\nozomi\Desktop\com\í êMån\20130815\20120510\Debug\command.o
 .rodata        0x0000f55c       0x30 C:\Users\nozomi\Desktop\com\í êMån\20130815\20120510\Debug\adconv.o
 .rodata        0x0000f58c        0x8 c:\program files\renesas\hew\tools\kpit\gnuh8-elf\v12.01\h8300-elf\lib\gcc\h8300-elf\4.6-GNUH8_v12.01\h8300h\libgcc.a(_thenan_sf.o)
                0x0000f58c                __thenan_sf
 .rodata        0x0000f594      0x100 c:\program files\renesas\hew\tools\kpit\gnuh8-elf\v12.01\h8300-elf\lib\gcc\h8300-elf\4.6-GNUH8_v12.01\h8300h\libgcc.a(_clz.o)
                0x0000f594                __clz_tab
 *(.rodata.*)
                0x0000f694                _erodata = .

.eh_frame_hdr
 *(.eh_frame_hdr)

.eh_frame
 *(.eh_frame)

.jcr
 *(.jcr)

.tors           0x0000f694        0x0
                0x0000f694                __CTOR_LIST__ = .
                0x0000f694                ___ctors = .
 *(.ctors)
                0x0000f694                ___ctors_end = .
                0x0000f694                __CTOR_END__ = .
                0x0000f694                __DTOR_LIST__ = .
                0x0000f694                ___dtors = .
 *(.dtors)
                0x0000f694                ___dtors_end = .
                0x0000f694                __DTOR_END__ = .
                0x0000f694                _mdata = .

.data           0x00ffbf20        0x0 load address 0x0000f694
                0x00ffbf20                _data = .
 *(.data)
 .data          0x00ffbf20        0x0 C:\Users\nozomi\Desktop\com\í êMån\20130815\20120510\Debug\vects.o
 .data          0x00ffbf20        0x0 C:\Users\nozomi\Desktop\com\í êMån\20130815\20120510\Debug\timer.o
 .data          0x00ffbf20        0x0 C:\Users\nozomi\Desktop\com\í êMån\20130815\20120510\Debug\teleme.o
 .data          0x00ffbf20        0x0 C:\Users\nozomi\Desktop\com\í êMån\20130815\20120510\Debug\start.o
 .data          0x00ffbf20        0x0 C:\Users\nozomi\Desktop\com\í êMån\20130815\20120510\Debug\sci_util.o
 .data          0x00ffbf20        0x0 C:\Users\nozomi\Desktop\com\í êMån\20130815\20120510\Debug\sci2.o
 .data          0x00ffbf20        0x0 C:\Users\nozomi\Desktop\com\í êMån\20130815\20120510\Debug\sci1.o
 .data          0x00ffbf20        0x0 C:\Users\nozomi\Desktop\com\í êMån\20130815\20120510\Debug\sci0.o
 .data          0x00ffbf20        0x0 C:\Users\nozomi\Desktop\com\í êMån\20130815\20120510\Debug\rx_protcol_inv.o
 .data          0x00ffbf20        0x0 C:\Users\nozomi\Desktop\com\í êMån\20130815\20120510\Debug\rx_pll_inv.o
 .data          0x00ffbf20        0x0 C:\Users\nozomi\Desktop\com\í êMån\20130815\20120510\Debug\rx.o
 .data          0x00ffbf20        0x0 C:\Users\nozomi\Desktop\com\í êMån\20130815\20120510\Debug\pwr.o
 .data          0x00ffbf20        0x0 C:\Users\nozomi\Desktop\com\í êMån\20130815\20120510\Debug\put_status.o
 .data          0x00ffbf20        0x0 C:\Users\nozomi\Desktop\com\í êMån\20130815\20120510\Debug\mission.o
 .data          0x00ffbf20        0x0 C:\Users\nozomi\Desktop\com\í êMån\20130815\20120510\Debug\message.o
 .data          0x00ffbf20        0x0 C:\Users\nozomi\Desktop\com\í êMån\20130815\20120510\Debug\itu1.o
 .data          0x00ffbf20        0x0 C:\Users\nozomi\Desktop\com\í êMån\20130815\20120510\Debug\itu0.o
 .data          0x00ffbf20        0x0 C:\Users\nozomi\Desktop\com\í êMån\20130815\20120510\Debug\inthandler.o
 .data          0x00ffbf20        0x0 C:\Users\nozomi\Desktop\com\í êMån\20130815\20120510\Debug\init.o
 .data          0x00ffbf20        0x0 C:\Users\nozomi\Desktop\com\í êMån\20130815\20120510\Debug\iic2.o
 .data          0x00ffbf20        0x0 C:\Users\nozomi\Desktop\com\í êMån\20130815\20120510\Debug\iic1.o
 .data          0x00ffbf20        0x0 C:\Users\nozomi\Desktop\com\í êMån\20130815\20120510\Debug\iic0.o
 .data          0x00ffbf20        0x0 C:\Users\nozomi\Desktop\com\í êMån\20130815\20120510\Debug\hwinit.o
 .data          0x00ffbf20        0x0 C:\Users\nozomi\Desktop\com\í êMån\20130815\20120510\Debug\global.o
 .data          0x00ffbf20        0x0 C:\Users\nozomi\Desktop\com\í êMån\20130815\20120510\Debug\fm_tx.o
 .data          0x00ffbf20        0x0 C:\Users\nozomi\Desktop\com\í êMån\20130815\20120510\Debug\fm_ptt.o
 .data          0x00ffbf20        0x0 C:\Users\nozomi\Desktop\com\í êMån\20130815\20120510\Debug\fm_pllcontrol.o
 .data          0x00ffbf20        0x0 C:\Users\nozomi\Desktop\com\í êMån\20130815\20120510\Debug\debug.o
 .data          0x00ffbf20        0x0 C:\Users\nozomi\Desktop\com\í êMån\20130815\20120510\Debug\command.o
 .data          0x00ffbf20        0x0 C:\Users\nozomi\Desktop\com\í êMån\20130815\20120510\Debug\comm_buffer.o
 .data          0x00ffbf20        0x0 C:\Users\nozomi\Desktop\com\í êMån\20130815\20120510\Debug\adconv.o
 .data          0x00ffbf20        0x0 c:\program files\renesas\hew\tools\kpit\gnuh8-elf\v12.01\h8300-elf\lib\gcc\h8300-elf\4.6-GNUH8_v12.01\h8300h\libgcc.a(_divsi3.o)
 .data          0x00ffbf20        0x0 c:\program files\renesas\hew\tools\kpit\gnuh8-elf\v12.01\h8300-elf\lib\gcc\h8300-elf\4.6-GNUH8_v12.01\h8300h\libgcc.a(_mulsi3.o)
 .data          0x00ffbf20        0x0 c:\program files\renesas\hew\tools\kpit\gnuh8-elf\v12.01\h8300-elf\lib\gcc\h8300-elf\4.6-GNUH8_v12.01\h8300h\libgcc.a(_fixunssfsi.o)
 .data          0x00ffbf20        0x0 c:\program files\renesas\hew\tools\kpit\gnuh8-elf\v12.01\h8300-elf\lib\gcc\h8300-elf\4.6-GNUH8_v12.01\h8300h\libgcc.a(_addsub_sf.o)
 .data          0x00ffbf20        0x0 c:\program files\renesas\hew\tools\kpit\gnuh8-elf\v12.01\h8300-elf\lib\gcc\h8300-elf\4.6-GNUH8_v12.01\h8300h\libgcc.a(_div_sf.o)
 .data          0x00ffbf20        0x0 c:\program files\renesas\hew\tools\kpit\gnuh8-elf\v12.01\h8300-elf\lib\gcc\h8300-elf\4.6-GNUH8_v12.01\h8300h\libgcc.a(_ge_sf.o)
 .data          0x00ffbf20        0x0 c:\program files\renesas\hew\tools\kpit\gnuh8-elf\v12.01\h8300-elf\lib\gcc\h8300-elf\4.6-GNUH8_v12.01\h8300h\libgcc.a(_si_to_sf.o)
 .data          0x00ffbf20        0x0 c:\program files\renesas\hew\tools\kpit\gnuh8-elf\v12.01\h8300-elf\lib\gcc\h8300-elf\4.6-GNUH8_v12.01\h8300h\libgcc.a(_sf_to_si.o)
 .data          0x00ffbf20        0x0 c:\program files\renesas\hew\tools\kpit\gnuh8-elf\v12.01\h8300-elf\lib\gcc\h8300-elf\4.6-GNUH8_v12.01\h8300h\libgcc.a(_thenan_sf.o)
 .data          0x00ffbf20        0x0 c:\program files\renesas\hew\tools\kpit\gnuh8-elf\v12.01\h8300-elf\lib\gcc\h8300-elf\4.6-GNUH8_v12.01\h8300h\libgcc.a(_clzsi2.o)
 .data          0x00ffbf20        0x0 c:\program files\renesas\hew\tools\kpit\gnuh8-elf\v12.01\h8300-elf\lib\gcc\h8300-elf\4.6-GNUH8_v12.01\h8300h\libgcc.a(_pack_sf.o)
 .data          0x00ffbf20        0x0 c:\program files\renesas\hew\tools\kpit\gnuh8-elf\v12.01\h8300-elf\lib\gcc\h8300-elf\4.6-GNUH8_v12.01\h8300h\libgcc.a(_unpack_sf.o)
 .data          0x00ffbf20        0x0 c:\program files\renesas\hew\tools\kpit\gnuh8-elf\v12.01\h8300-elf\lib\gcc\h8300-elf\4.6-GNUH8_v12.01\h8300h\libgcc.a(_fpcmp_parts_sf.o)
 .data          0x00ffbf20        0x0 c:\program files\renesas\hew\tools\kpit\gnuh8-elf\v12.01\h8300-elf\lib\gcc\h8300-elf\4.6-GNUH8_v12.01\h8300h\libgcc.a(_clz.o)
 .data          0x00ffbf20        0x0 C:\Users\nozomi\Desktop\com\í êMån\20130815\20120510\Debug\lib20120510.a(exit.o)
 .data          0x00ffbf20        0x0 C:\Users\nozomi\Desktop\com\í êMån\20130815\20120510\Debug\lib20120510.a(newfree.o)
 .data          0x00ffbf20        0x0 C:\Users\nozomi\Desktop\com\í êMån\20130815\20120510\Debug\lib20120510.a(newheap.o)
 .data          0x00ffbf20        0x0 C:\Users\nozomi\Desktop\com\í êMån\20130815\20120510\Debug\lib20120510.a(newmalloc.o)
 .data          0x00ffbf20        0x0 C:\Users\nozomi\Desktop\com\í êMån\20130815\20120510\Debug\lib20120510.a(_exit.o)
 *(.data.*)
                0x00ffbf20                _edata = .

.gcc_exc
 *(.gcc_exc)

.bss            0x00ffbf20     0x1b90 load address 0x0000f694
                0x00ffbf20                _bss = .
 *(.bss)
 .bss           0x00ffbf20        0x0 C:\Users\nozomi\Desktop\com\í êMån\20130815\20120510\Debug\vects.o
 .bss           0x00ffbf20        0x2 C:\Users\nozomi\Desktop\com\í êMån\20130815\20120510\Debug\timer.o
                0x00ffbf20                timer_flag
 *fill*         0x00ffbf22        0x2 00
 .bss           0x00ffbf24      0x25c C:\Users\nozomi\Desktop\com\í êMån\20130815\20120510\Debug\teleme.o
 .bss           0x00ffc180        0x0 C:\Users\nozomi\Desktop\com\í êMån\20130815\20120510\Debug\start.o
 .bss           0x00ffc180        0x0 C:\Users\nozomi\Desktop\com\í êMån\20130815\20120510\Debug\sci_util.o
 .bss           0x00ffc180      0x20c C:\Users\nozomi\Desktop\com\í êMån\20130815\20120510\Debug\sci2.o
 .bss           0x00ffc38c      0x20c C:\Users\nozomi\Desktop\com\í êMån\20130815\20120510\Debug\sci1.o
 .bss           0x00ffc598      0x20c C:\Users\nozomi\Desktop\com\í êMån\20130815\20120510\Debug\sci0.o
 .bss           0x00ffc7a4        0xc C:\Users\nozomi\Desktop\com\í êMån\20130815\20120510\Debug\rx_protcol_inv.o
                0x00ffc7a4                shiftbuff
                0x00ffc7a6                bit
 .bss           0x00ffc7b0        0x8 C:\Users\nozomi\Desktop\com\í êMån\20130815\20120510\Debug\rx_pll_inv.o
 .bss           0x00ffc7b8        0x8 C:\Users\nozomi\Desktop\com\í êMån\20130815\20120510\Debug\rx.o
 .bss           0x00ffc7c0        0x0 C:\Users\nozomi\Desktop\com\í êMån\20130815\20120510\Debug\pwr.o
 .bss           0x00ffc7c0      0x1a0 C:\Users\nozomi\Desktop\com\í êMån\20130815\20120510\Debug\put_status.o
 .bss           0x00ffc960        0x4 C:\Users\nozomi\Desktop\com\í êMån\20130815\20120510\Debug\mission.o
 .bss           0x00ffc964      0xa48 C:\Users\nozomi\Desktop\com\í êMån\20130815\20120510\Debug\message.o
 .bss           0x00ffd3ac        0x0 C:\Users\nozomi\Desktop\com\í êMån\20130815\20120510\Debug\itu1.o
 .bss           0x00ffd3ac        0x0 C:\Users\nozomi\Desktop\com\í êMån\20130815\20120510\Debug\itu0.o
 .bss           0x00ffd3ac        0x0 C:\Users\nozomi\Desktop\com\í êMån\20130815\20120510\Debug\inthandler.o
 .bss           0x00ffd3ac        0x0 C:\Users\nozomi\Desktop\com\í êMån\20130815\20120510\Debug\init.o
 .bss           0x00ffd3ac        0x0 C:\Users\nozomi\Desktop\com\í êMån\20130815\20120510\Debug\iic2.o
 .bss           0x00ffd3ac        0x0 C:\Users\nozomi\Desktop\com\í êMån\20130815\20120510\Debug\iic1.o
 .bss           0x00ffd3ac        0x0 C:\Users\nozomi\Desktop\com\í êMån\20130815\20120510\Debug\iic0.o
 .bss           0x00ffd3ac        0x0 C:\Users\nozomi\Desktop\com\í êMån\20130815\20120510\Debug\hwinit.o
 .bss           0x00ffd3ac        0x0 C:\Users\nozomi\Desktop\com\í êMån\20130815\20120510\Debug\global.o
 .bss           0x00ffd3ac        0x0 C:\Users\nozomi\Desktop\com\í êMån\20130815\20120510\Debug\fm_tx.o
 .bss           0x00ffd3ac        0x0 C:\Users\nozomi\Desktop\com\í êMån\20130815\20120510\Debug\fm_ptt.o
 .bss           0x00ffd3ac        0x0 C:\Users\nozomi\Desktop\com\í êMån\20130815\20120510\Debug\fm_pllcontrol.o
 .bss           0x00ffd3ac      0x3a0 C:\Users\nozomi\Desktop\com\í êMån\20130815\20120510\Debug\debug.o
 .bss           0x00ffd74c        0x6 C:\Users\nozomi\Desktop\com\í êMån\20130815\20120510\Debug\command.o
 *fill*         0x00ffd752        0x2 00
 .bss           0x00ffd754        0x8 C:\Users\nozomi\Desktop\com\í êMån\20130815\20120510\Debug\comm_buffer.o
 .bss           0x00ffd75c        0x1 C:\Users\nozomi\Desktop\com\í êMån\20130815\20120510\Debug\adconv.o
 .bss           0x00ffd75d        0x0 c:\program files\renesas\hew\tools\kpit\gnuh8-elf\v12.01\h8300-elf\lib\gcc\h8300-elf\4.6-GNUH8_v12.01\h8300h\libgcc.a(_divsi3.o)
 .bss           0x00ffd75d        0x0 c:\program files\renesas\hew\tools\kpit\gnuh8-elf\v12.01\h8300-elf\lib\gcc\h8300-elf\4.6-GNUH8_v12.01\h8300h\libgcc.a(_mulsi3.o)
 .bss           0x00ffd75d        0x0 c:\program files\renesas\hew\tools\kpit\gnuh8-elf\v12.01\h8300-elf\lib\gcc\h8300-elf\4.6-GNUH8_v12.01\h8300h\libgcc.a(_fixunssfsi.o)
 .bss           0x00ffd75d        0x0 c:\program files\renesas\hew\tools\kpit\gnuh8-elf\v12.01\h8300-elf\lib\gcc\h8300-elf\4.6-GNUH8_v12.01\h8300h\libgcc.a(_addsub_sf.o)
 .bss           0x00ffd75d        0x0 c:\program files\renesas\hew\tools\kpit\gnuh8-elf\v12.01\h8300-elf\lib\gcc\h8300-elf\4.6-GNUH8_v12.01\h8300h\libgcc.a(_div_sf.o)
 .bss           0x00ffd75d        0x0 c:\program files\renesas\hew\tools\kpit\gnuh8-elf\v12.01\h8300-elf\lib\gcc\h8300-elf\4.6-GNUH8_v12.01\h8300h\libgcc.a(_ge_sf.o)
 .bss           0x00ffd75d        0x0 c:\program files\renesas\hew\tools\kpit\gnuh8-elf\v12.01\h8300-elf\lib\gcc\h8300-elf\4.6-GNUH8_v12.01\h8300h\libgcc.a(_si_to_sf.o)
 .bss           0x00ffd75d        0x0 c:\program files\renesas\hew\tools\kpit\gnuh8-elf\v12.01\h8300-elf\lib\gcc\h8300-elf\4.6-GNUH8_v12.01\h8300h\libgcc.a(_sf_to_si.o)
 .bss           0x00ffd75d        0x0 c:\program files\renesas\hew\tools\kpit\gnuh8-elf\v12.01\h8300-elf\lib\gcc\h8300-elf\4.6-GNUH8_v12.01\h8300h\libgcc.a(_thenan_sf.o)
 .bss           0x00ffd75d        0x0 c:\program files\renesas\hew\tools\kpit\gnuh8-elf\v12.01\h8300-elf\lib\gcc\h8300-elf\4.6-GNUH8_v12.01\h8300h\libgcc.a(_clzsi2.o)
 .bss           0x00ffd75d        0x0 c:\program files\renesas\hew\tools\kpit\gnuh8-elf\v12.01\h8300-elf\lib\gcc\h8300-elf\4.6-GNUH8_v12.01\h8300h\libgcc.a(_pack_sf.o)
 .bss           0x00ffd75d        0x0 c:\program files\renesas\hew\tools\kpit\gnuh8-elf\v12.01\h8300-elf\lib\gcc\h8300-elf\4.6-GNUH8_v12.01\h8300h\libgcc.a(_unpack_sf.o)
 .bss           0x00ffd75d        0x0 c:\program files\renesas\hew\tools\kpit\gnuh8-elf\v12.01\h8300-elf\lib\gcc\h8300-elf\4.6-GNUH8_v12.01\h8300h\libgcc.a(_fpcmp_parts_sf.o)
 .bss           0x00ffd75d        0x0 c:\program files\renesas\hew\tools\kpit\gnuh8-elf\v12.01\h8300-elf\lib\gcc\h8300-elf\4.6-GNUH8_v12.01\h8300h\libgcc.a(_clz.o)
 .bss           0x00ffd75d        0x0 C:\Users\nozomi\Desktop\com\í êMån\20130815\20120510\Debug\lib20120510.a(exit.o)
 .bss           0x00ffd75d        0x0 C:\Users\nozomi\Desktop\com\í êMån\20130815\20120510\Debug\lib20120510.a(newfree.o)
 .bss           0x00ffd75d        0x0 C:\Users\nozomi\Desktop\com\í êMån\20130815\20120510\Debug\lib20120510.a(newheap.o)
 .bss           0x00ffd75d        0x0 C:\Users\nozomi\Desktop\com\í êMån\20130815\20120510\Debug\lib20120510.a(newmalloc.o)
 .bss           0x00ffd75d        0x0 C:\Users\nozomi\Desktop\com\í êMån\20130815\20120510\Debug\lib20120510.a(_exit.o)
 *(.bss.*)
 *fill*         0x00ffd75d        0x3 00
 .bss._heap_of_memory
                0x00ffd760        0x4 C:\Users\nozomi\Desktop\com\í êMån\20130815\20120510\Debug\lib20120510.a(newheap.o)
                0x00ffd760                _heap_of_memory
 .bss._last_heap_object
                0x00ffd764        0x4 C:\Users\nozomi\Desktop\com\í êMån\20130815\20120510\Debug\lib20120510.a(newheap.o)
                0x00ffd764                _last_heap_object
 *(COMMON)
 COMMON         0x00ffd768        0x2 C:\Users\nozomi\Desktop\com\í êMån\20130815\20120510\Debug\timer.o
                0x00ffd768                time
 *fill*         0x00ffd76a        0x2 00
 COMMON         0x00ffd76c      0x1ac C:\Users\nozomi\Desktop\com\í êMån\20130815\20120510\Debug\teleme.o
                0x00ffd76c                ena_overa
                0x00ffd76f                flag_dispAD
                0x00ffd772                flag_overa
                0x00ffd775                flag_dteleme
                0x00ffd778                ena_rteleme
                0x00ffd77b                ena_ateleme
                0x00ffd77e                flag_ad
                0x00ffd784                my_wdt
                0x00ffd788                flag_iteleme
                0x00ffd78b                ena_iteleme
                0x00ffd78e                ena_mywdt
                0x00ffd794                itu1_cnt
                0x00ffd798                ena_dteleme
                0x00ffd79b                flag_ateleme
                0x00ffd79e                ena_ad
                0x00ffd7a1                flag_oteleme
                0x00ffd7a4                flag_rteleme
                0x00ffd7a7                ena_dispAD
                0x00ffd7aa                mpx
                0x00ffd7ca                status
                0x00ffd849                ena_oteleme
                0x00ffd84c                message_global
 COMMON         0x00ffd918        0xd C:\Users\nozomi\Desktop\com\í êMån\20130815\20120510\Debug\rx_protcol_inv.o
                0x00ffd918                i
                0x00ffd91a                fcslo
                0x00ffd91c                uplink_rx_buff
                0x00ffd920                kbit
                0x00ffd922                info_length
                0x00ffd924                fcshi
 COMMON         0x00ffd925        0xc C:\Users\nozomi\Desktop\com\í êMån\20130815\20120510\Debug\pwr.o
                0x00ffd925                ena_alive
                0x00ffd928                flag_pwrt
                0x00ffd92b                ena_pwrt
                0x00ffd92e                flag_alive
 COMMON         0x00ffd931        0x6 C:\Users\nozomi\Desktop\com\í êMån\20130815\20120510\Debug\mission.o
                0x00ffd931                ena_misst
                0x00ffd934                flag_misst
 *fill*         0x00ffd937        0x1 00
 COMMON         0x00ffd938        0xd C:\Users\nozomi\Desktop\com\í êMån\20130815\20120510\Debug\message.o
                0x00ffd938                flag_send_fm
                0x00ffd939                flag_exe
                0x00ffd93c                FmPreamble
                0x00ffd940                stuff
                0x00ffd941                fcsflag_send_fm
                0x00ffd942                flag_scirx
 COMMON         0x00ffd945        0x1 C:\Users\nozomi\Desktop\com\í êMån\20130815\20120510\Debug\iic2.o
                0x00ffd945                P2_DDR
 *fill*         0x00ffd946        0x2 00
 COMMON         0x00ffd948      0x168 C:\Users\nozomi\Desktop\com\í êMån\20130815\20120510\Debug\command.o
                0x00ffd948                command_H
                0x00ffd9c0                command_M
                0x00ffda38                command_L
                0x00ffdab0                _ebss = .
                0x00ffdab0                _end = .

.stack          0x00ffff00        0x0
                0x00ffff00                _stack = .
LOAD C:\Users\nozomi\Desktop\com\í êMån\20130815\20120510\Debug\vects.o
LOAD C:\Users\nozomi\Desktop\com\í êMån\20130815\20120510\Debug\timer.o
LOAD C:\Users\nozomi\Desktop\com\í êMån\20130815\20120510\Debug\teleme.o
LOAD C:\Users\nozomi\Desktop\com\í êMån\20130815\20120510\Debug\start.o
LOAD C:\Users\nozomi\Desktop\com\í êMån\20130815\20120510\Debug\sci_util.o
LOAD C:\Users\nozomi\Desktop\com\í êMån\20130815\20120510\Debug\sci2.o
LOAD C:\Users\nozomi\Desktop\com\í êMån\20130815\20120510\Debug\sci1.o
LOAD C:\Users\nozomi\Desktop\com\í êMån\20130815\20120510\Debug\sci0.o
LOAD C:\Users\nozomi\Desktop\com\í êMån\20130815\20120510\Debug\rx_protcol_inv.o
LOAD C:\Users\nozomi\Desktop\com\í êMån\20130815\20120510\Debug\rx_pll_inv.o
LOAD C:\Users\nozomi\Desktop\com\í êMån\20130815\20120510\Debug\rx.o
LOAD C:\Users\nozomi\Desktop\com\í êMån\20130815\20120510\Debug\pwr.o
LOAD C:\Users\nozomi\Desktop\com\í êMån\20130815\20120510\Debug\put_status.o
LOAD C:\Users\nozomi\Desktop\com\í êMån\20130815\20120510\Debug\mission.o
LOAD C:\Users\nozomi\Desktop\com\í êMån\20130815\20120510\Debug\message.o
LOAD C:\Users\nozomi\Desktop\com\í êMån\20130815\20120510\Debug\itu1.o
LOAD C:\Users\nozomi\Desktop\com\í êMån\20130815\20120510\Debug\itu0.o
LOAD C:\Users\nozomi\Desktop\com\í êMån\20130815\20120510\Debug\inthandler.o
LOAD C:\Users\nozomi\Desktop\com\í êMån\20130815\20120510\Debug\init.o
LOAD C:\Users\nozomi\Desktop\com\í êMån\20130815\20120510\Debug\iic2.o
LOAD C:\Users\nozomi\Desktop\com\í êMån\20130815\20120510\Debug\iic1.o
LOAD C:\Users\nozomi\Desktop\com\í êMån\20130815\20120510\Debug\iic0.o
LOAD C:\Users\nozomi\Desktop\com\í êMån\20130815\20120510\Debug\hwinit.o
LOAD C:\Users\nozomi\Desktop\com\í êMån\20130815\20120510\Debug\global.o
LOAD C:\Users\nozomi\Desktop\com\í êMån\20130815\20120510\Debug\fm_tx.o
LOAD C:\Users\nozomi\Desktop\com\í êMån\20130815\20120510\Debug\fm_ptt.o
LOAD C:\Users\nozomi\Desktop\com\í êMån\20130815\20120510\Debug\fm_pllcontrol.o
LOAD C:\Users\nozomi\Desktop\com\í êMån\20130815\20120510\Debug\debug.o
LOAD C:\Users\nozomi\Desktop\com\í êMån\20130815\20120510\Debug\command.o
LOAD C:\Users\nozomi\Desktop\com\í êMån\20130815\20120510\Debug\comm_buffer.o
LOAD C:\Users\nozomi\Desktop\com\í êMån\20130815\20120510\Debug\adconv.o
START GROUP
LOAD c:\program files\renesas\hew\tools\kpit\gnuh8-elf\v12.01\h8300-elf\lib\gcc\h8300-elf\4.6-GNUH8_v12.01\h8300h\libgcc.a
LOAD C:\Users\nozomi\Desktop\com\í êMån\20130815\20120510\Debug\lib20120510.a
END GROUP
OUTPUT(C:\Users\nozomi\Desktop\com\í êMån\20130815\20120510\Debug\20130815.x elf32-h8300)

.debug_info     0x00000000     0xb069
 .debug_info    0x00000000       0x64 C:\Users\nozomi\Desktop\com\í êMån\20130815\20120510\Debug\vects.o
 .debug_info    0x00000064      0x5f3 C:\Users\nozomi\Desktop\com\í êMån\20130815\20120510\Debug\timer.o
 .debug_info    0x00000657      0x7e6 C:\Users\nozomi\Desktop\com\í êMån\20130815\20120510\Debug\teleme.o
 .debug_info    0x00000e3d       0xad C:\Users\nozomi\Desktop\com\í êMån\20130815\20120510\Debug\start.o
 .debug_info    0x00000eea      0x158 C:\Users\nozomi\Desktop\com\í êMån\20130815\20120510\Debug\sci_util.o
 .debug_info    0x00001042      0x6aa C:\Users\nozomi\Desktop\com\í êMån\20130815\20120510\Debug\sci2.o
 .debug_info    0x000016ec      0x6aa C:\Users\nozomi\Desktop\com\í êMån\20130815\20120510\Debug\sci1.o
 .debug_info    0x00001d96      0x6aa C:\Users\nozomi\Desktop\com\í êMån\20130815\20120510\Debug\sci0.o
 .debug_info    0x00002440      0x973 C:\Users\nozomi\Desktop\com\í êMån\20130815\20120510\Debug\rx_protcol_inv.o
 .debug_info    0x00002db3      0x41d C:\Users\nozomi\Desktop\com\í êMån\20130815\20120510\Debug\rx_pll_inv.o
 .debug_info    0x000031d0      0x185 C:\Users\nozomi\Desktop\com\í êMån\20130815\20120510\Debug\rx.o
 .debug_info    0x00003355      0x4cf C:\Users\nozomi\Desktop\com\í êMån\20130815\20120510\Debug\pwr.o
 .debug_info    0x00003824      0x94e C:\Users\nozomi\Desktop\com\í êMån\20130815\20120510\Debug\put_status.o
 .debug_info    0x00004172      0x983 C:\Users\nozomi\Desktop\com\í êMån\20130815\20120510\Debug\mission.o
 .debug_info    0x00004af5      0xbda C:\Users\nozomi\Desktop\com\í êMån\20130815\20120510\Debug\message.o
 .debug_info    0x000056cf      0xb71 C:\Users\nozomi\Desktop\com\í êMån\20130815\20120510\Debug\itu1.o
 .debug_info    0x00006240      0x818 C:\Users\nozomi\Desktop\com\í êMån\20130815\20120510\Debug\itu0.o
 .debug_info    0x00006a58      0x2ad C:\Users\nozomi\Desktop\com\í êMån\20130815\20120510\Debug\inthandler.o
 .debug_info    0x00006d05      0x850 C:\Users\nozomi\Desktop\com\í êMån\20130815\20120510\Debug\init.o
 .debug_info    0x00007555      0x410 C:\Users\nozomi\Desktop\com\í êMån\20130815\20120510\Debug\iic2.o
 .debug_info    0x00007965      0x410 C:\Users\nozomi\Desktop\com\í êMån\20130815\20120510\Debug\iic1.o
 .debug_info    0x00007d75      0x410 C:\Users\nozomi\Desktop\com\í êMån\20130815\20120510\Debug\iic0.o
 .debug_info    0x00008185       0x53 C:\Users\nozomi\Desktop\com\í êMån\20130815\20120510\Debug\hwinit.o
 .debug_info    0x000081d8      0x6cf C:\Users\nozomi\Desktop\com\í êMån\20130815\20120510\Debug\global.o
 .debug_info    0x000088a7      0x59c C:\Users\nozomi\Desktop\com\í êMån\20130815\20120510\Debug\fm_tx.o
 .debug_info    0x00008e43      0x114 C:\Users\nozomi\Desktop\com\í êMån\20130815\20120510\Debug\fm_ptt.o
 .debug_info    0x00008f57      0x3ba C:\Users\nozomi\Desktop\com\í êMån\20130815\20120510\Debug\fm_pllcontrol.o
 .debug_info    0x00009311      0xf2e C:\Users\nozomi\Desktop\com\í êMån\20130815\20120510\Debug\debug.o
 .debug_info    0x0000a23f      0x58e C:\Users\nozomi\Desktop\com\í êMån\20130815\20120510\Debug\command.o
 .debug_info    0x0000a7cd      0x137 C:\Users\nozomi\Desktop\com\í êMån\20130815\20120510\Debug\comm_buffer.o
 .debug_info    0x0000a904      0x765 C:\Users\nozomi\Desktop\com\í êMån\20130815\20120510\Debug\adconv.o

.debug_abbrev   0x00000000     0x23d4
 .debug_abbrev  0x00000000       0x62 C:\Users\nozomi\Desktop\com\í êMån\20130815\20120510\Debug\vects.o
 .debug_abbrev  0x00000062       0xf7 C:\Users\nozomi\Desktop\com\í êMån\20130815\20120510\Debug\timer.o
 .debug_abbrev  0x00000159      0x140 C:\Users\nozomi\Desktop\com\í êMån\20130815\20120510\Debug\teleme.o
 .debug_abbrev  0x00000299       0x14 C:\Users\nozomi\Desktop\com\í êMån\20130815\20120510\Debug\start.o
 .debug_abbrev  0x000002ad       0xb1 C:\Users\nozomi\Desktop\com\í êMån\20130815\20120510\Debug\sci_util.o
 .debug_abbrev  0x0000035e      0x1be C:\Users\nozomi\Desktop\com\í êMån\20130815\20120510\Debug\sci2.o
 .debug_abbrev  0x0000051c      0x1be C:\Users\nozomi\Desktop\com\í êMån\20130815\20120510\Debug\sci1.o
 .debug_abbrev  0x000006da      0x1be C:\Users\nozomi\Desktop\com\í êMån\20130815\20120510\Debug\sci0.o
 .debug_abbrev  0x00000898      0x234 C:\Users\nozomi\Desktop\com\í êMån\20130815\20120510\Debug\rx_protcol_inv.o
 .debug_abbrev  0x00000acc       0xfc C:\Users\nozomi\Desktop\com\í êMån\20130815\20120510\Debug\rx_pll_inv.o
 .debug_abbrev  0x00000bc8       0xcb C:\Users\nozomi\Desktop\com\í êMån\20130815\20120510\Debug\rx.o
 .debug_abbrev  0x00000c93       0xde C:\Users\nozomi\Desktop\com\í êMån\20130815\20120510\Debug\pwr.o
 .debug_abbrev  0x00000d71      0x120 C:\Users\nozomi\Desktop\com\í êMån\20130815\20120510\Debug\put_status.o
 .debug_abbrev  0x00000e91      0x1cb C:\Users\nozomi\Desktop\com\í êMån\20130815\20120510\Debug\mission.o
 .debug_abbrev  0x0000105c      0x1a3 C:\Users\nozomi\Desktop\com\í êMån\20130815\20120510\Debug\message.o
 .debug_abbrev  0x000011ff      0x14d C:\Users\nozomi\Desktop\com\í êMån\20130815\20120510\Debug\itu1.o
 .debug_abbrev  0x0000134c      0x13e C:\Users\nozomi\Desktop\com\í êMån\20130815\20120510\Debug\itu0.o
 .debug_abbrev  0x0000148a       0x27 C:\Users\nozomi\Desktop\com\í êMån\20130815\20120510\Debug\inthandler.o
 .debug_abbrev  0x000014b1      0x121 C:\Users\nozomi\Desktop\com\í êMån\20130815\20120510\Debug\init.o
 .debug_abbrev  0x000015d2      0x147 C:\Users\nozomi\Desktop\com\í êMån\20130815\20120510\Debug\iic2.o
 .debug_abbrev  0x00001719      0x147 C:\Users\nozomi\Desktop\com\í êMån\20130815\20120510\Debug\iic1.o
 .debug_abbrev  0x00001860      0x147 C:\Users\nozomi\Desktop\com\í êMån\20130815\20120510\Debug\iic0.o
 .debug_abbrev  0x000019a7       0x32 C:\Users\nozomi\Desktop\com\í êMån\20130815\20120510\Debug\hwinit.o
 .debug_abbrev  0x000019d9      0x104 C:\Users\nozomi\Desktop\com\í êMån\20130815\20120510\Debug\global.o
 .debug_abbrev  0x00001add      0x1c8 C:\Users\nozomi\Desktop\com\í êMån\20130815\20120510\Debug\fm_tx.o
 .debug_abbrev  0x00001ca5       0x7d C:\Users\nozomi\Desktop\com\í êMån\20130815\20120510\Debug\fm_ptt.o
 .debug_abbrev  0x00001d22       0xe4 C:\Users\nozomi\Desktop\com\í êMån\20130815\20120510\Debug\fm_pllcontrol.o
 .debug_abbrev  0x00001e06      0x1d6 C:\Users\nozomi\Desktop\com\í êMån\20130815\20120510\Debug\debug.o
 .debug_abbrev  0x00001fdc      0x198 C:\Users\nozomi\Desktop\com\í êMån\20130815\20120510\Debug\command.o
 .debug_abbrev  0x00002174       0x82 C:\Users\nozomi\Desktop\com\í êMån\20130815\20120510\Debug\comm_buffer.o
 .debug_abbrev  0x000021f6      0x1de C:\Users\nozomi\Desktop\com\í êMån\20130815\20120510\Debug\adconv.o

.debug_line     0x00000000     0x8c41
 .debug_line    0x00000000       0x64 C:\Users\nozomi\Desktop\com\í êMån\20130815\20120510\Debug\vects.o
 .debug_line    0x00000064      0x155 C:\Users\nozomi\Desktop\com\í êMån\20130815\20120510\Debug\timer.o
 .debug_line    0x000001b9      0x8a5 C:\Users\nozomi\Desktop\com\í êMån\20130815\20120510\Debug\teleme.o
 .debug_line    0x00000a5e       0x87 C:\Users\nozomi\Desktop\com\í êMån\20130815\20120510\Debug\start.o
 .debug_line    0x00000ae5      0x14f C:\Users\nozomi\Desktop\com\í êMån\20130815\20120510\Debug\sci_util.o
 .debug_line    0x00000c34      0x4ca C:\Users\nozomi\Desktop\com\í êMån\20130815\20120510\Debug\sci2.o
 .debug_line    0x000010fe      0x4ca C:\Users\nozomi\Desktop\com\í êMån\20130815\20120510\Debug\sci1.o
 .debug_line    0x000015c8      0x4ca C:\Users\nozomi\Desktop\com\í êMån\20130815\20120510\Debug\sci0.o
 .debug_line    0x00001a92      0x5fc C:\Users\nozomi\Desktop\com\í êMån\20130815\20120510\Debug\rx_protcol_inv.o
 .debug_line    0x0000208e      0x25c C:\Users\nozomi\Desktop\com\í êMån\20130815\20120510\Debug\rx_pll_inv.o
 .debug_line    0x000022ea      0x193 C:\Users\nozomi\Desktop\com\í êMån\20130815\20120510\Debug\rx.o
 .debug_line    0x0000247d      0x21c C:\Users\nozomi\Desktop\com\í êMån\20130815\20120510\Debug\pwr.o
 .debug_line    0x00002699      0x61c C:\Users\nozomi\Desktop\com\í êMån\20130815\20120510\Debug\put_status.o
 .debug_line    0x00002cb5      0x41e C:\Users\nozomi\Desktop\com\í êMån\20130815\20120510\Debug\mission.o
 .debug_line    0x000030d3      0xe98 C:\Users\nozomi\Desktop\com\í êMån\20130815\20120510\Debug\message.o
 .debug_line    0x00003f6b      0x2b0 C:\Users\nozomi\Desktop\com\í êMån\20130815\20120510\Debug\itu1.o
 .debug_line    0x0000421b      0x161 C:\Users\nozomi\Desktop\com\í êMån\20130815\20120510\Debug\itu0.o
 .debug_line    0x0000437c      0x259 C:\Users\nozomi\Desktop\com\í êMån\20130815\20120510\Debug\inthandler.o
 .debug_line    0x000045d5      0x2b4 C:\Users\nozomi\Desktop\com\í êMån\20130815\20120510\Debug\init.o
 .debug_line    0x00004889      0x488 C:\Users\nozomi\Desktop\com\í êMån\20130815\20120510\Debug\iic2.o
 .debug_line    0x00004d11      0x488 C:\Users\nozomi\Desktop\com\í êMån\20130815\20120510\Debug\iic1.o
 .debug_line    0x00005199      0x488 C:\Users\nozomi\Desktop\com\í êMån\20130815\20120510\Debug\iic0.o
 .debug_line    0x00005621       0x75 C:\Users\nozomi\Desktop\com\í êMån\20130815\20120510\Debug\hwinit.o
 .debug_line    0x00005696      0x3ab C:\Users\nozomi\Desktop\com\í êMån\20130815\20120510\Debug\global.o
 .debug_line    0x00005a41      0x733 C:\Users\nozomi\Desktop\com\í êMån\20130815\20120510\Debug\fm_tx.o
 .debug_line    0x00006174       0xda C:\Users\nozomi\Desktop\com\í êMån\20130815\20120510\Debug\fm_ptt.o
 .debug_line    0x0000624e      0x2a5 C:\Users\nozomi\Desktop\com\í êMån\20130815\20120510\Debug\fm_pllcontrol.o
 .debug_line    0x000064f3     0x1825 C:\Users\nozomi\Desktop\com\í êMån\20130815\20120510\Debug\debug.o
 .debug_line    0x00007d18      0x97f C:\Users\nozomi\Desktop\com\í êMån\20130815\20120510\Debug\command.o
 .debug_line    0x00008697      0x116 C:\Users\nozomi\Desktop\com\í êMån\20130815\20120510\Debug\comm_buffer.o
 .debug_line    0x000087ad      0x494 C:\Users\nozomi\Desktop\com\í êMån\20130815\20120510\Debug\adconv.o

.debug_str      0x00000000     0x1c8a
 .debug_str     0x00000000       0x76 C:\Users\nozomi\Desktop\com\í êMån\20130815\20120510\Debug\vects.o
 .debug_str     0x00000076      0x190 C:\Users\nozomi\Desktop\com\í êMån\20130815\20120510\Debug\timer.o
                                0x1d0 (size before relaxing)
 .debug_str     0x00000206      0x256 C:\Users\nozomi\Desktop\com\í êMån\20130815\20120510\Debug\teleme.o
                                0x2ce (size before relaxing)
 .debug_str     0x0000045c       0x9f C:\Users\nozomi\Desktop\com\í êMån\20130815\20120510\Debug\sci_util.o
                                 0xf8 (size before relaxing)
 .debug_str     0x000004fb      0x17c C:\Users\nozomi\Desktop\com\í êMån\20130815\20120510\Debug\sci2.o
                                0x1f4 (size before relaxing)
 .debug_str     0x00000677      0x113 C:\Users\nozomi\Desktop\com\í êMån\20130815\20120510\Debug\sci1.o
                                0x1f4 (size before relaxing)
 .debug_str     0x0000078a      0x113 C:\Users\nozomi\Desktop\com\í êMån\20130815\20120510\Debug\sci0.o
                                0x1f4 (size before relaxing)
 .debug_str     0x0000089d      0x18e C:\Users\nozomi\Desktop\com\í êMån\20130815\20120510\Debug\rx_protcol_inv.o
                                0x314 (size before relaxing)
 .debug_str     0x00000a2b      0x134 C:\Users\nozomi\Desktop\com\í êMån\20130815\20120510\Debug\rx_pll_inv.o
                                0x207 (size before relaxing)
 .debug_str     0x00000b5f       0x59 C:\Users\nozomi\Desktop\com\í êMån\20130815\20120510\Debug\rx.o
                                0x10d (size before relaxing)
 .debug_str     0x00000bb8       0xcf C:\Users\nozomi\Desktop\com\í êMån\20130815\20120510\Debug\pwr.o
                                0x23c (size before relaxing)
 .debug_str     0x00000c87      0x140 C:\Users\nozomi\Desktop\com\í êMån\20130815\20120510\Debug\put_status.o
                                0x246 (size before relaxing)
 .debug_str     0x00000dc7       0xdd C:\Users\nozomi\Desktop\com\í êMån\20130815\20120510\Debug\mission.o
                                0x2e6 (size before relaxing)
 .debug_str     0x00000ea4      0x2b1 C:\Users\nozomi\Desktop\com\í êMån\20130815\20120510\Debug\message.o
                                0x44c (size before relaxing)
 .debug_str     0x00001155       0x50 C:\Users\nozomi\Desktop\com\í êMån\20130815\20120510\Debug\itu1.o
                                0x373 (size before relaxing)
 .debug_str     0x000011a5       0x5a C:\Users\nozomi\Desktop\com\í êMån\20130815\20120510\Debug\itu0.o
                                0x272 (size before relaxing)
 .debug_str     0x000011ff      0x174 C:\Users\nozomi\Desktop\com\í êMån\20130815\20120510\Debug\inthandler.o
                                0x18b (size before relaxing)
 .debug_str     0x00001373       0x6e C:\Users\nozomi\Desktop\com\í êMån\20130815\20120510\Debug\init.o
                                0x2e6 (size before relaxing)
 .debug_str     0x000013e1       0xe3 C:\Users\nozomi\Desktop\com\í êMån\20130815\20120510\Debug\iic2.o
                                0x147 (size before relaxing)
 .debug_str     0x000014c4       0x98 C:\Users\nozomi\Desktop\com\í êMån\20130815\20120510\Debug\iic1.o
                                0x147 (size before relaxing)
 .debug_str     0x0000155c       0x98 C:\Users\nozomi\Desktop\com\í êMån\20130815\20120510\Debug\iic0.o
                                0x147 (size before relaxing)
 .debug_str     0x000015f4       0x4c C:\Users\nozomi\Desktop\com\í êMån\20130815\20120510\Debug\hwinit.o
                                 0x9b (size before relaxing)
 .debug_str     0x00001640       0x7d C:\Users\nozomi\Desktop\com\í êMån\20130815\20120510\Debug\global.o
                                0x28b (size before relaxing)
 .debug_str     0x000016bd      0x138 C:\Users\nozomi\Desktop\com\í êMån\20130815\20120510\Debug\fm_tx.o
                                0x229 (size before relaxing)
 .debug_str     0x000017f5       0x3e C:\Users\nozomi\Desktop\com\í êMån\20130815\20120510\Debug\fm_ptt.o
                                 0xad (size before relaxing)
 .debug_str     0x00001833       0xd1 C:\Users\nozomi\Desktop\com\í êMån\20130815\20120510\Debug\fm_pllcontrol.o
                                0x1ee (size before relaxing)
 .debug_str     0x00001904      0x185 C:\Users\nozomi\Desktop\com\í êMån\20130815\20120510\Debug\debug.o
                                0x403 (size before relaxing)
 .debug_str     0x00001a89       0xd9 C:\Users\nozomi\Desktop\com\í êMån\20130815\20120510\Debug\command.o
                                0x2a4 (size before relaxing)
 .debug_str     0x00001b62       0x54 C:\Users\nozomi\Desktop\com\í êMån\20130815\20120510\Debug\comm_buffer.o
                                0x10e (size before relaxing)
 .debug_str     0x00001bb6       0xd4 C:\Users\nozomi\Desktop\com\í êMån\20130815\20120510\Debug\adconv.o
                                0x217 (size before relaxing)

.comment        0x00000000       0x38
 .comment       0x00000000       0x1c C:\Users\nozomi\Desktop\com\í êMån\20130815\20120510\Debug\vects.o
                                 0x1d (size before relaxing)
 .comment       0x00000000       0x1d C:\Users\nozomi\Desktop\com\í êMån\20130815\20120510\Debug\timer.o
 .comment       0x00000000       0x1d C:\Users\nozomi\Desktop\com\í êMån\20130815\20120510\Debug\teleme.o
 .comment       0x00000000       0x1d C:\Users\nozomi\Desktop\com\í êMån\20130815\20120510\Debug\sci_util.o
 .comment       0x00000000       0x1d C:\Users\nozomi\Desktop\com\í êMån\20130815\20120510\Debug\sci2.o
 .comment       0x00000000       0x1d C:\Users\nozomi\Desktop\com\í êMån\20130815\20120510\Debug\sci1.o
 .comment       0x00000000       0x1d C:\Users\nozomi\Desktop\com\í êMån\20130815\20120510\Debug\sci0.o
 .comment       0x00000000       0x1d C:\Users\nozomi\Desktop\com\í êMån\20130815\20120510\Debug\rx_protcol_inv.o
 .comment       0x00000000       0x1d C:\Users\nozomi\Desktop\com\í êMån\20130815\20120510\Debug\rx_pll_inv.o
 .comment       0x00000000       0x1d C:\Users\nozomi\Desktop\com\í êMån\20130815\20120510\Debug\rx.o
 .comment       0x00000000       0x1d C:\Users\nozomi\Desktop\com\í êMån\20130815\20120510\Debug\pwr.o
 .comment       0x00000000       0x1d C:\Users\nozomi\Desktop\com\í êMån\20130815\20120510\Debug\put_status.o
 .comment       0x00000000       0x1d C:\Users\nozomi\Desktop\com\í êMån\20130815\20120510\Debug\mission.o
 .comment       0x00000000       0x1d C:\Users\nozomi\Desktop\com\í êMån\20130815\20120510\Debug\message.o
 .comment       0x00000000       0x1d C:\Users\nozomi\Desktop\com\í êMån\20130815\20120510\Debug\itu1.o
 .comment       0x00000000       0x1d C:\Users\nozomi\Desktop\com\í êMån\20130815\20120510\Debug\itu0.o
 .comment       0x00000000       0x1d C:\Users\nozomi\Desktop\com\í êMån\20130815\20120510\Debug\inthandler.o
 .comment       0x00000000       0x1d C:\Users\nozomi\Desktop\com\í êMån\20130815\20120510\Debug\init.o
 .comment       0x00000000       0x1d C:\Users\nozomi\Desktop\com\í êMån\20130815\20120510\Debug\iic2.o
 .comment       0x00000000       0x1d C:\Users\nozomi\Desktop\com\í êMån\20130815\20120510\Debug\iic1.o
 .comment       0x00000000       0x1d C:\Users\nozomi\Desktop\com\í êMån\20130815\20120510\Debug\iic0.o
 .comment       0x00000000       0x1d C:\Users\nozomi\Desktop\com\í êMån\20130815\20120510\Debug\hwinit.o
 .comment       0x00000000       0x1d C:\Users\nozomi\Desktop\com\í êMån\20130815\20120510\Debug\global.o
 .comment       0x00000000       0x1d C:\Users\nozomi\Desktop\com\í êMån\20130815\20120510\Debug\fm_tx.o
 .comment       0x00000000       0x1d C:\Users\nozomi\Desktop\com\í êMån\20130815\20120510\Debug\fm_ptt.o
 .comment       0x00000000       0x1d C:\Users\nozomi\Desktop\com\í êMån\20130815\20120510\Debug\fm_pllcontrol.o
 .comment       0x00000000       0x1d C:\Users\nozomi\Desktop\com\í êMån\20130815\20120510\Debug\debug.o
 .comment       0x00000000       0x1d C:\Users\nozomi\Desktop\com\í êMån\20130815\20120510\Debug\command.o
 .comment       0x00000000       0x1d C:\Users\nozomi\Desktop\com\í êMån\20130815\20120510\Debug\comm_buffer.o
 .comment       0x00000000       0x1d C:\Users\nozomi\Desktop\com\í êMån\20130815\20120510\Debug\adconv.o
 .comment       0x00000000       0x1d c:\program files\renesas\hew\tools\kpit\gnuh8-elf\v12.01\h8300-elf\lib\gcc\h8300-elf\4.6-GNUH8_v12.01\h8300h\libgcc.a(_fixunssfsi.o)
 .comment       0x00000000       0x1d c:\program files\renesas\hew\tools\kpit\gnuh8-elf\v12.01\h8300-elf\lib\gcc\h8300-elf\4.6-GNUH8_v12.01\h8300h\libgcc.a(_addsub_sf.o)
 .comment       0x00000000       0x1d c:\program files\renesas\hew\tools\kpit\gnuh8-elf\v12.01\h8300-elf\lib\gcc\h8300-elf\4.6-GNUH8_v12.01\h8300h\libgcc.a(_div_sf.o)
 .comment       0x00000000       0x1d c:\program files\renesas\hew\tools\kpit\gnuh8-elf\v12.01\h8300-elf\lib\gcc\h8300-elf\4.6-GNUH8_v12.01\h8300h\libgcc.a(_ge_sf.o)
 .comment       0x00000000       0x1d c:\program files\renesas\hew\tools\kpit\gnuh8-elf\v12.01\h8300-elf\lib\gcc\h8300-elf\4.6-GNUH8_v12.01\h8300h\libgcc.a(_si_to_sf.o)
 .comment       0x00000000       0x1d c:\program files\renesas\hew\tools\kpit\gnuh8-elf\v12.01\h8300-elf\lib\gcc\h8300-elf\4.6-GNUH8_v12.01\h8300h\libgcc.a(_sf_to_si.o)
 .comment       0x00000000       0x1d c:\program files\renesas\hew\tools\kpit\gnuh8-elf\v12.01\h8300-elf\lib\gcc\h8300-elf\4.6-GNUH8_v12.01\h8300h\libgcc.a(_thenan_sf.o)
 .comment       0x00000000       0x1d c:\program files\renesas\hew\tools\kpit\gnuh8-elf\v12.01\h8300-elf\lib\gcc\h8300-elf\4.6-GNUH8_v12.01\h8300h\libgcc.a(_clzsi2.o)
 .comment       0x00000000       0x1d c:\program files\renesas\hew\tools\kpit\gnuh8-elf\v12.01\h8300-elf\lib\gcc\h8300-elf\4.6-GNUH8_v12.01\h8300h\libgcc.a(_pack_sf.o)
 .comment       0x00000000       0x1d c:\program files\renesas\hew\tools\kpit\gnuh8-elf\v12.01\h8300-elf\lib\gcc\h8300-elf\4.6-GNUH8_v12.01\h8300h\libgcc.a(_unpack_sf.o)
 .comment       0x00000000       0x1d c:\program files\renesas\hew\tools\kpit\gnuh8-elf\v12.01\h8300-elf\lib\gcc\h8300-elf\4.6-GNUH8_v12.01\h8300h\libgcc.a(_fpcmp_parts_sf.o)
 .comment       0x00000000       0x1d c:\program files\renesas\hew\tools\kpit\gnuh8-elf\v12.01\h8300-elf\lib\gcc\h8300-elf\4.6-GNUH8_v12.01\h8300h\libgcc.a(_clz.o)
 .comment       0x0000001c       0x1c C:\Users\nozomi\Desktop\com\í êMån\20130815\20120510\Debug\lib20120510.a(exit.o)
                                 0x1d (size before relaxing)
 .comment       0x00000000       0x1d C:\Users\nozomi\Desktop\com\í êMån\20130815\20120510\Debug\lib20120510.a(newfree.o)
 .comment       0x00000000       0x1d C:\Users\nozomi\Desktop\com\í êMån\20130815\20120510\Debug\lib20120510.a(newheap.o)
 .comment       0x00000000       0x1d C:\Users\nozomi\Desktop\com\í êMån\20130815\20120510\Debug\lib20120510.a(newmalloc.o)

.debug_frame    0x00000000     0x2504
 .debug_frame   0x00000000       0x5c C:\Users\nozomi\Desktop\com\í êMån\20130815\20120510\Debug\timer.o
 .debug_frame   0x0000005c      0x158 C:\Users\nozomi\Desktop\com\í êMån\20130815\20120510\Debug\teleme.o
 .debug_frame   0x000001b4      0x114 C:\Users\nozomi\Desktop\com\í êMån\20130815\20120510\Debug\sci_util.o
 .debug_frame   0x000002c8      0x210 C:\Users\nozomi\Desktop\com\í êMån\20130815\20120510\Debug\sci2.o
 .debug_frame   0x000004d8      0x210 C:\Users\nozomi\Desktop\com\í êMån\20130815\20120510\Debug\sci1.o
 .debug_frame   0x000006e8      0x210 C:\Users\nozomi\Desktop\com\í êMån\20130815\20120510\Debug\sci0.o
 .debug_frame   0x000008f8      0x148 C:\Users\nozomi\Desktop\com\í êMån\20130815\20120510\Debug\rx_protcol_inv.o
 .debug_frame   0x00000a40      0x11c C:\Users\nozomi\Desktop\com\í êMån\20130815\20120510\Debug\rx_pll_inv.o
 .debug_frame   0x00000b5c       0x38 C:\Users\nozomi\Desktop\com\í êMån\20130815\20120510\Debug\rx.o
 .debug_frame   0x00000b94       0xec C:\Users\nozomi\Desktop\com\í êMån\20130815\20120510\Debug\pwr.o
 .debug_frame   0x00000c80      0x14c C:\Users\nozomi\Desktop\com\í êMån\20130815\20120510\Debug\put_status.o
 .debug_frame   0x00000dcc      0x120 C:\Users\nozomi\Desktop\com\í êMån\20130815\20120510\Debug\mission.o
 .debug_frame   0x00000eec      0x224 C:\Users\nozomi\Desktop\com\í êMån\20130815\20120510\Debug\message.o
 .debug_frame   0x00001110       0x6c C:\Users\nozomi\Desktop\com\í êMån\20130815\20120510\Debug\itu1.o
 .debug_frame   0x0000117c       0x90 C:\Users\nozomi\Desktop\com\í êMån\20130815\20120510\Debug\itu0.o
 .debug_frame   0x0000120c      0x470 C:\Users\nozomi\Desktop\com\í êMån\20130815\20120510\Debug\inthandler.o
 .debug_frame   0x0000167c       0x8c C:\Users\nozomi\Desktop\com\í êMån\20130815\20120510\Debug\init.o
 .debug_frame   0x00001708      0x17c C:\Users\nozomi\Desktop\com\í êMån\20130815\20120510\Debug\iic2.o
 .debug_frame   0x00001884      0x17c C:\Users\nozomi\Desktop\com\í êMån\20130815\20120510\Debug\iic1.o
 .debug_frame   0x00001a00      0x17c C:\Users\nozomi\Desktop\com\í êMån\20130815\20120510\Debug\iic0.o
 .debug_frame   0x00001b7c       0x38 C:\Users\nozomi\Desktop\com\í êMån\20130815\20120510\Debug\hwinit.o
 .debug_frame   0x00001bb4       0xc8 C:\Users\nozomi\Desktop\com\í êMån\20130815\20120510\Debug\global.o
 .debug_frame   0x00001c7c      0x1a0 C:\Users\nozomi\Desktop\com\í êMån\20130815\20120510\Debug\fm_tx.o
 .debug_frame   0x00001e1c       0x5c C:\Users\nozomi\Desktop\com\í êMån\20130815\20120510\Debug\fm_ptt.o
 .debug_frame   0x00001e78      0x14c C:\Users\nozomi\Desktop\com\í êMån\20130815\20120510\Debug\fm_pllcontrol.o
 .debug_frame   0x00001fc4      0x330 C:\Users\nozomi\Desktop\com\í êMån\20130815\20120510\Debug\debug.o
 .debug_frame   0x000022f4       0xc8 C:\Users\nozomi\Desktop\com\í êMån\20130815\20120510\Debug\command.o
 .debug_frame   0x000023bc       0x38 C:\Users\nozomi\Desktop\com\í êMån\20130815\20120510\Debug\comm_buffer.o
 .debug_frame   0x000023f4      0x110 C:\Users\nozomi\Desktop\com\í êMån\20130815\20120510\Debug\adconv.o

.debug_loc      0x00000000     0x2730
 .debug_loc     0x00000000       0x58 C:\Users\nozomi\Desktop\com\í êMån\20130815\20120510\Debug\timer.o
 .debug_loc     0x00000058      0x160 C:\Users\nozomi\Desktop\com\í êMån\20130815\20120510\Debug\teleme.o
 .debug_loc     0x000001b8      0x134 C:\Users\nozomi\Desktop\com\í êMån\20130815\20120510\Debug\sci_util.o
 .debug_loc     0x000002ec      0x23c C:\Users\nozomi\Desktop\com\í êMån\20130815\20120510\Debug\sci2.o
 .debug_loc     0x00000528      0x23c C:\Users\nozomi\Desktop\com\í êMån\20130815\20120510\Debug\sci1.o
 .debug_loc     0x00000764      0x23c C:\Users\nozomi\Desktop\com\í êMån\20130815\20120510\Debug\sci0.o
 .debug_loc     0x000009a0      0x160 C:\Users\nozomi\Desktop\com\í êMån\20130815\20120510\Debug\rx_protcol_inv.o
 .debug_loc     0x00000b00      0x134 C:\Users\nozomi\Desktop\com\í êMån\20130815\20120510\Debug\rx_pll_inv.o
 .debug_loc     0x00000c34       0x2c C:\Users\nozomi\Desktop\com\í êMån\20130815\20120510\Debug\rx.o
 .debug_loc     0x00000c60      0x108 C:\Users\nozomi\Desktop\com\í êMån\20130815\20120510\Debug\pwr.o
 .debug_loc     0x00000d68      0x108 C:\Users\nozomi\Desktop\com\í êMån\20130815\20120510\Debug\put_status.o
 .debug_loc     0x00000e70      0x134 C:\Users\nozomi\Desktop\com\í êMån\20130815\20120510\Debug\mission.o
 .debug_loc     0x00000fa4      0x23c C:\Users\nozomi\Desktop\com\í êMån\20130815\20120510\Debug\message.o
 .debug_loc     0x000011e0       0x58 C:\Users\nozomi\Desktop\com\í êMån\20130815\20120510\Debug\itu1.o
 .debug_loc     0x00001238       0x84 C:\Users\nozomi\Desktop\com\í êMån\20130815\20120510\Debug\itu0.o
 .debug_loc     0x000012bc      0x554 C:\Users\nozomi\Desktop\com\í êMån\20130815\20120510\Debug\inthandler.o
 .debug_loc     0x00001810       0x84 C:\Users\nozomi\Desktop\com\í êMån\20130815\20120510\Debug\init.o
 .debug_loc     0x00001894      0x1b8 C:\Users\nozomi\Desktop\com\í êMån\20130815\20120510\Debug\iic2.o
 .debug_loc     0x00001a4c      0x1b8 C:\Users\nozomi\Desktop\com\í êMån\20130815\20120510\Debug\iic1.o
 .debug_loc     0x00001c04      0x1b8 C:\Users\nozomi\Desktop\com\í êMån\20130815\20120510\Debug\iic0.o
 .debug_loc     0x00001dbc       0x2c C:\Users\nozomi\Desktop\com\í êMån\20130815\20120510\Debug\hwinit.o
 .debug_loc     0x00001de8       0xdc C:\Users\nozomi\Desktop\com\í êMån\20130815\20120510\Debug\global.o
 .debug_loc     0x00001ec4      0x1e4 C:\Users\nozomi\Desktop\com\í êMån\20130815\20120510\Debug\fm_tx.o
 .debug_loc     0x000020a8       0x58 C:\Users\nozomi\Desktop\com\í êMån\20130815\20120510\Debug\fm_ptt.o
 .debug_loc     0x00002100      0x160 C:\Users\nozomi\Desktop\com\í êMån\20130815\20120510\Debug\fm_pllcontrol.o
 .debug_loc     0x00002260      0x294 C:\Users\nozomi\Desktop\com\í êMån\20130815\20120510\Debug\debug.o
 .debug_loc     0x000024f4       0xdc C:\Users\nozomi\Desktop\com\í êMån\20130815\20120510\Debug\command.o
 .debug_loc     0x000025d0       0x2c C:\Users\nozomi\Desktop\com\í êMån\20130815\20120510\Debug\comm_buffer.o
 .debug_loc     0x000025fc      0x134 C:\Users\nozomi\Desktop\com\í êMån\20130815\20120510\Debug\adconv.o

.debug_aranges  0x00000000      0x3c0
 .debug_aranges
                0x00000000       0x20 C:\Users\nozomi\Desktop\com\í êMån\20130815\20120510\Debug\timer.o
 .debug_aranges
                0x00000020       0x20 C:\Users\nozomi\Desktop\com\í êMån\20130815\20120510\Debug\teleme.o
 .debug_aranges
                0x00000040       0x20 C:\Users\nozomi\Desktop\com\í êMån\20130815\20120510\Debug\start.o
 .debug_aranges
                0x00000060       0x20 C:\Users\nozomi\Desktop\com\í êMån\20130815\20120510\Debug\sci_util.o
 .debug_aranges
                0x00000080       0x20 C:\Users\nozomi\Desktop\com\í êMån\20130815\20120510\Debug\sci2.o
 .debug_aranges
                0x000000a0       0x20 C:\Users\nozomi\Desktop\com\í êMån\20130815\20120510\Debug\sci1.o
 .debug_aranges
                0x000000c0       0x20 C:\Users\nozomi\Desktop\com\í êMån\20130815\20120510\Debug\sci0.o
 .debug_aranges
                0x000000e0       0x20 C:\Users\nozomi\Desktop\com\í êMån\20130815\20120510\Debug\rx_protcol_inv.o
 .debug_aranges
                0x00000100       0x20 C:\Users\nozomi\Desktop\com\í êMån\20130815\20120510\Debug\rx_pll_inv.o
 .debug_aranges
                0x00000120       0x20 C:\Users\nozomi\Desktop\com\í êMån\20130815\20120510\Debug\rx.o
 .debug_aranges
                0x00000140       0x20 C:\Users\nozomi\Desktop\com\í êMån\20130815\20120510\Debug\pwr.o
 .debug_aranges
                0x00000160       0x20 C:\Users\nozomi\Desktop\com\í êMån\20130815\20120510\Debug\put_status.o
 .debug_aranges
                0x00000180       0x20 C:\Users\nozomi\Desktop\com\í êMån\20130815\20120510\Debug\mission.o
 .debug_aranges
                0x000001a0       0x20 C:\Users\nozomi\Desktop\com\í êMån\20130815\20120510\Debug\message.o
 .debug_aranges
                0x000001c0       0x20 C:\Users\nozomi\Desktop\com\í êMån\20130815\20120510\Debug\itu1.o
 .debug_aranges
                0x000001e0       0x20 C:\Users\nozomi\Desktop\com\í êMån\20130815\20120510\Debug\itu0.o
 .debug_aranges
                0x00000200       0x20 C:\Users\nozomi\Desktop\com\í êMån\20130815\20120510\Debug\inthandler.o
 .debug_aranges
                0x00000220       0x20 C:\Users\nozomi\Desktop\com\í êMån\20130815\20120510\Debug\init.o
 .debug_aranges
                0x00000240       0x20 C:\Users\nozomi\Desktop\com\í êMån\20130815\20120510\Debug\iic2.o
 .debug_aranges
                0x00000260       0x20 C:\Users\nozomi\Desktop\com\í êMån\20130815\20120510\Debug\iic1.o
 .debug_aranges
                0x00000280       0x20 C:\Users\nozomi\Desktop\com\í êMån\20130815\20120510\Debug\iic0.o
 .debug_aranges
                0x000002a0       0x20 C:\Users\nozomi\Desktop\com\í êMån\20130815\20120510\Debug\hwinit.o
 .debug_aranges
                0x000002c0       0x20 C:\Users\nozomi\Desktop\com\í êMån\20130815\20120510\Debug\global.o
 .debug_aranges
                0x000002e0       0x20 C:\Users\nozomi\Desktop\com\í êMån\20130815\20120510\Debug\fm_tx.o
 .debug_aranges
                0x00000300       0x20 C:\Users\nozomi\Desktop\com\í êMån\20130815\20120510\Debug\fm_ptt.o
 .debug_aranges
                0x00000320       0x20 C:\Users\nozomi\Desktop\com\í êMån\20130815\20120510\Debug\fm_pllcontrol.o
 .debug_aranges
                0x00000340       0x20 C:\Users\nozomi\Desktop\com\í êMån\20130815\20120510\Debug\debug.o
 .debug_aranges
                0x00000360       0x20 C:\Users\nozomi\Desktop\com\í êMån\20130815\20120510\Debug\command.o
 .debug_aranges
                0x00000380       0x20 C:\Users\nozomi\Desktop\com\í êMån\20130815\20120510\Debug\comm_buffer.o
 .debug_aranges
                0x000003a0       0x20 C:\Users\nozomi\Desktop\com\í êMån\20130815\20120510\Debug\adconv.o

.debug_ranges   0x00000000       0x18
 .debug_ranges  0x00000000       0x18 C:\Users\nozomi\Desktop\com\í êMån\20130815\20120510\Debug\command.o


==============================================================

Listfile generated by KPIT GNUH8 [ELF]-v12.01 on Friday, August 16, 2013, 23:48:47

Build options:

-T "C:\Users\nozomi\Desktop\com\í êMån\20130815\20120510\Debug\20130815_Debug_auto.gsi"
-T "C:\Users\nozomi\Desktop\com\í êMån\20130815\20120510\Debug\20130815_input.tmp" 
-L "c:\program files\renesas\hew\tools\kpit\gnuh8-elf\v12.01\h8300-elf\lib\gcc\h8300-elf\4.6-GNUH8_v12.01\h8300h"
-L "C:\Users\nozomi\Desktop\com\í êMån\20130815\20120510\Debug"
-Map "C:\Users\nozomi\Desktop\com\í êMån\20130815\20120510\Debug\20130815.map"
-( -l "gcc" -l "20120510" -)
-o "C:\Users\nozomi\Desktop\com\í êMån\20130815\20120510\Debug\20130815.x"
-e _start
INPUT("C:\Users\nozomi\Desktop\com\í êMån\20130815\20120510\Debug\vects.o")
INPUT("C:\Users\nozomi\Desktop\com\í êMån\20130815\20120510\Debug\timer.o")
INPUT("C:\Users\nozomi\Desktop\com\í êMån\20130815\20120510\Debug\teleme.o")
INPUT("C:\Users\nozomi\Desktop\com\í êMån\20130815\20120510\Debug\start.o")
INPUT("C:\Users\nozomi\Desktop\com\í êMån\20130815\20120510\Debug\sci_util.o")
INPUT("C:\Users\nozomi\Desktop\com\í êMån\20130815\20120510\Debug\sci2.o")
INPUT("C:\Users\nozomi\Desktop\com\í êMån\20130815\20120510\Debug\sci1.o")
INPUT("C:\Users\nozomi\Desktop\com\í êMån\20130815\20120510\Debug\sci0.o")
INPUT("C:\Users\nozomi\Desktop\com\í êMån\20130815\20120510\Debug\rx_protcol_inv.o")
INPUT("C:\Users\nozomi\Desktop\com\í êMån\20130815\20120510\Debug\rx_pll_inv.o")
INPUT("C:\Users\nozomi\Desktop\com\í êMån\20130815\20120510\Debug\rx.o")
INPUT("C:\Users\nozomi\Desktop\com\í êMån\20130815\20120510\Debug\pwr.o")
INPUT("C:\Users\nozomi\Desktop\com\í êMån\20130815\20120510\Debug\put_status.o")
INPUT("C:\Users\nozomi\Desktop\com\í êMån\20130815\20120510\Debug\mission.o")
INPUT("C:\Users\nozomi\Desktop\com\í êMån\20130815\20120510\Debug\message.o")
INPUT("C:\Users\nozomi\Desktop\com\í êMån\20130815\20120510\Debug\itu1.o")
INPUT("C:\Users\nozomi\Desktop\com\í êMån\20130815\20120510\Debug\itu0.o")
INPUT("C:\Users\nozomi\Desktop\com\í êMån\20130815\20120510\Debug\inthandler.o")
INPUT("C:\Users\nozomi\Desktop\com\í êMån\20130815\20120510\Debug\init.o")
INPUT("C:\Users\nozomi\Desktop\com\í êMån\20130815\20120510\Debug\iic2.o")
INPUT("C:\Users\nozomi\Desktop\com\í êMån\20130815\20120510\Debug\iic1.o")
INPUT("C:\Users\nozomi\Desktop\com\í êMån\20130815\20120510\Debug\iic0.o")
INPUT("C:\Users\nozomi\Desktop\com\í êMån\20130815\20120510\Debug\hwinit.o")
INPUT("C:\Users\nozomi\Desktop\com\í êMån\20130815\20120510\Debug\global.o")
INPUT("C:\Users\nozomi\Desktop\com\í êMån\20130815\20120510\Debug\fm_tx.o")
INPUT("C:\Users\nozomi\Desktop\com\í êMån\20130815\20120510\Debug\fm_ptt.o")
INPUT("C:\Users\nozomi\Desktop\com\í êMån\20130815\20120510\Debug\fm_pllcontrol.o")
INPUT("C:\Users\nozomi\Desktop\com\í êMån\20130815\20120510\Debug\debug.o")
INPUT("C:\Users\nozomi\Desktop\com\í êMån\20130815\20120510\Debug\command.o")
INPUT("C:\Users\nozomi\Desktop\com\í êMån\20130815\20120510\Debug\comm_buffer.o")
INPUT("C:\Users\nozomi\Desktop\com\í êMån\20130815\20120510\Debug\adconv.o")
